
AVRASM ver. 2.1.30  C:\Users\abc\Dropbox\ADAPTER_CV_PROJ_v7 - current\List\adapter.asm Fri May 23 13:10:14 2014

C:\Users\abc\Dropbox\ADAPTER_CV_PROJ_v7 - current\List\adapter.asm(1061): warning: Register r5 already defined by the .DEF directive
C:\Users\abc\Dropbox\ADAPTER_CV_PROJ_v7 - current\List\adapter.asm(1062): warning: Register r4 already defined by the .DEF directive
C:\Users\abc\Dropbox\ADAPTER_CV_PROJ_v7 - current\List\adapter.asm(1063): warning: Register r7 already defined by the .DEF directive
C:\Users\abc\Dropbox\ADAPTER_CV_PROJ_v7 - current\List\adapter.asm(1064): warning: Register r6 already defined by the .DEF directive
C:\Users\abc\Dropbox\ADAPTER_CV_PROJ_v7 - current\List\adapter.asm(1065): warning: Register r8 already defined by the .DEF directive
C:\Users\abc\Dropbox\ADAPTER_CV_PROJ_v7 - current\List\adapter.asm(1066): warning: Register r11 already defined by the .DEF directive
C:\Users\abc\Dropbox\ADAPTER_CV_PROJ_v7 - current\List\adapter.asm(1067): warning: Register r10 already defined by the .DEF directive
C:\Users\abc\Dropbox\ADAPTER_CV_PROJ_v7 - current\List\adapter.asm(1068): warning: Register r13 already defined by the .DEF directive
C:\Users\abc\Dropbox\ADAPTER_CV_PROJ_v7 - current\List\adapter.asm(1069): warning: Register r12 already defined by the .DEF directive
                 
                 
                 ;CodeVisionAVR C Compiler V2.05.0 Professional
                 ;(C) Copyright 1998-2010 Pavel Haiduc, HP InfoTech s.r.l.
                 ;http://www.hpinfotech.com
                 
                 ;Chip type                : ATmega128
                 ;Program type             : Application
                 ;Clock frequency          : 16,000000 MHz
                 ;Memory model             : Small
                 ;Optimize for             : Size
                 ;(s)printf features       : int, width
                 ;(s)scanf features        : int, width
                 ;External RAM size        : 0
                 ;Data Stack size          : 256 byte(s)
                 ;Heap size                : 0 byte(s)
                 ;Promote 'char' to 'int'  : No
                 ;'char' is unsigned       : Yes
                 ;8 bit enums              : Yes
                 ;global 'const' stored in FLASH: Yes
                 ;Enhanced core instructions    : On
                 ;Smart register allocation     : On
                 ;Automatic register allocation : On
                 
                 	#pragma AVRPART ADMIN PART_NAME ATmega128
                 	#pragma AVRPART MEMORY PROG_FLASH 131072
                 	#pragma AVRPART MEMORY EEPROM 4096
                 	#pragma AVRPART MEMORY INT_SRAM SIZE 4351
                 	#pragma AVRPART MEMORY INT_SRAM START_ADDR 0x100
                 
                 	#define CALL_SUPPORTED 1
                 
                 	.LISTMAC
                 	.EQU UDRE=0x5
                 	.EQU RXC=0x7
                 	.EQU USR=0xB
                 	.EQU UDR=0xC
                 	.EQU SPSR=0xE
                 	.EQU SPDR=0xF
                 	.EQU EERE=0x0
                 	.EQU EEWE=0x1
                 	.EQU EEMWE=0x2
                 	.EQU EECR=0x1C
                 	.EQU EEDR=0x1D
                 	.EQU EEARL=0x1E
                 	.EQU EEARH=0x1F
                 	.EQU WDTCR=0x21
                 	.EQU MCUCR=0x35
                 	.EQU RAMPZ=0x3B
                 	.EQU SPL=0x3D
                 	.EQU SPH=0x3E
                 	.EQU SREG=0x3F
                 	.EQU XMCRA=0x6D
                 	.EQU XMCRB=0x6C
                 
                 	.DEF R0X0=R0
                 	.DEF R0X1=R1
                 	.DEF R0X2=R2
                 	.DEF R0X3=R3
                 	.DEF R0X4=R4
                 	.DEF R0X5=R5
                 	.DEF R0X6=R6
                 	.DEF R0X7=R7
                 	.DEF R0X8=R8
                 	.DEF R0X9=R9
                 	.DEF R0XA=R10
                 	.DEF R0XB=R11
                 	.DEF R0XC=R12
                 	.DEF R0XD=R13
                 	.DEF R0XE=R14
                 	.DEF R0XF=R15
                 	.DEF R0X10=R16
                 	.DEF R0X11=R17
                 	.DEF R0X12=R18
                 	.DEF R0X13=R19
                 	.DEF R0X14=R20
                 	.DEF R0X15=R21
                 	.DEF R0X16=R22
                 	.DEF R0X17=R23
                 	.DEF R0X18=R24
                 	.DEF R0X19=R25
                 	.DEF R0X1A=R26
                 	.DEF R0X1B=R27
                 	.DEF R0X1C=R28
                 	.DEF R0X1D=R29
                 	.DEF R0X1E=R30
                 	.DEF R0X1F=R31
                 
                 	.EQU __SRAM_START=0x0100
                 	.EQU __SRAM_END=0x10FF
                 	.EQU __DSTACK_SIZE=0x0100
                 	.EQU __HEAP_SIZE=0x0000
                 	.EQU __CLEAR_SRAM_SIZE=__SRAM_END-__SRAM_START+1
                 
                 	.MACRO __CPD1N
                 	CPI  R30,LOW(@0)
                 	LDI  R26,HIGH(@0)
                 	CPC  R31,R26
                 	LDI  R26,BYTE3(@0)
                 	CPC  R22,R26
                 	LDI  R26,BYTE4(@0)
                 	CPC  R23,R26
                 	.ENDM
                 
                 	.MACRO __CPD2N
                 	CPI  R26,LOW(@0)
                 	LDI  R30,HIGH(@0)
                 	CPC  R27,R30
                 	LDI  R30,BYTE3(@0)
                 	CPC  R24,R30
                 	LDI  R30,BYTE4(@0)
                 	CPC  R25,R30
                 	.ENDM
                 
                 	.MACRO __CPWRR
                 	CP   R@0,R@2
                 	CPC  R@1,R@3
                 	.ENDM
                 
                 	.MACRO __CPWRN
                 	CPI  R@0,LOW(@2)
                 	LDI  R30,HIGH(@2)
                 	CPC  R@1,R30
                 	.ENDM
                 
                 	.MACRO __ADDB1MN
                 	SUBI R30,LOW(-@0-(@1))
                 	.ENDM
                 
                 	.MACRO __ADDB2MN
                 	SUBI R26,LOW(-@0-(@1))
                 	.ENDM
                 
                 	.MACRO __ADDW1MN
                 	SUBI R30,LOW(-@0-(@1))
                 	SBCI R31,HIGH(-@0-(@1))
                 	.ENDM
                 
                 	.MACRO __ADDW2MN
                 	SUBI R26,LOW(-@0-(@1))
                 	SBCI R27,HIGH(-@0-(@1))
                 	.ENDM
                 
                 	.MACRO __ADDW1FN
                 	SUBI R30,LOW(-2*@0-(@1))
                 	SBCI R31,HIGH(-2*@0-(@1))
                 	.ENDM
                 
                 	.MACRO __ADDD1FN
                 	SUBI R30,LOW(-2*@0-(@1))
                 	SBCI R31,HIGH(-2*@0-(@1))
                 	SBCI R22,BYTE3(-2*@0-(@1))
                 	.ENDM
                 
                 	.MACRO __ADDD1N
                 	SUBI R30,LOW(-@0)
                 	SBCI R31,HIGH(-@0)
                 	SBCI R22,BYTE3(-@0)
                 	SBCI R23,BYTE4(-@0)
                 	.ENDM
                 
                 	.MACRO __ADDD2N
                 	SUBI R26,LOW(-@0)
                 	SBCI R27,HIGH(-@0)
                 	SBCI R24,BYTE3(-@0)
                 	SBCI R25,BYTE4(-@0)
                 	.ENDM
                 
                 	.MACRO __SUBD1N
                 	SUBI R30,LOW(@0)
                 	SBCI R31,HIGH(@0)
                 	SBCI R22,BYTE3(@0)
                 	SBCI R23,BYTE4(@0)
                 	.ENDM
                 
                 	.MACRO __SUBD2N
                 	SUBI R26,LOW(@0)
                 	SBCI R27,HIGH(@0)
                 	SBCI R24,BYTE3(@0)
                 	SBCI R25,BYTE4(@0)
                 	.ENDM
                 
                 	.MACRO __ANDBMNN
                 	LDS  R30,@0+(@1)
                 	ANDI R30,LOW(@2)
                 	STS  @0+(@1),R30
                 	.ENDM
                 
                 	.MACRO __ANDWMNN
                 	LDS  R30,@0+(@1)
                 	ANDI R30,LOW(@2)
                 	STS  @0+(@1),R30
                 	LDS  R30,@0+(@1)+1
                 	ANDI R30,HIGH(@2)
                 	STS  @0+(@1)+1,R30
                 	.ENDM
                 
                 	.MACRO __ANDD1N
                 	ANDI R30,LOW(@0)
                 	ANDI R31,HIGH(@0)
                 	ANDI R22,BYTE3(@0)
                 	ANDI R23,BYTE4(@0)
                 	.ENDM
                 
                 	.MACRO __ANDD2N
                 	ANDI R26,LOW(@0)
                 	ANDI R27,HIGH(@0)
                 	ANDI R24,BYTE3(@0)
                 	ANDI R25,BYTE4(@0)
                 	.ENDM
                 
                 	.MACRO __ORBMNN
                 	LDS  R30,@0+(@1)
                 	ORI  R30,LOW(@2)
                 	STS  @0+(@1),R30
                 	.ENDM
                 
                 	.MACRO __ORWMNN
                 	LDS  R30,@0+(@1)
                 	ORI  R30,LOW(@2)
                 	STS  @0+(@1),R30
                 	LDS  R30,@0+(@1)+1
                 	ORI  R30,HIGH(@2)
                 	STS  @0+(@1)+1,R30
                 	.ENDM
                 
                 	.MACRO __ORD1N
                 	ORI  R30,LOW(@0)
                 	ORI  R31,HIGH(@0)
                 	ORI  R22,BYTE3(@0)
                 	ORI  R23,BYTE4(@0)
                 	.ENDM
                 
                 	.MACRO __ORD2N
                 	ORI  R26,LOW(@0)
                 	ORI  R27,HIGH(@0)
                 	ORI  R24,BYTE3(@0)
                 	ORI  R25,BYTE4(@0)
                 	.ENDM
                 
                 	.MACRO __DELAY_USB
                 	LDI  R24,LOW(@0)
                 __DELAY_USB_LOOP:
                 	DEC  R24
                 	BRNE __DELAY_USB_LOOP
                 	.ENDM
                 
                 	.MACRO __DELAY_USW
                 	LDI  R24,LOW(@0)
                 	LDI  R25,HIGH(@0)
                 __DELAY_USW_LOOP:
                 	SBIW R24,1
                 	BRNE __DELAY_USW_LOOP
                 	.ENDM
                 
                 	.MACRO __GETD1S
                 	LDD  R30,Y+@0
                 	LDD  R31,Y+@0+1
                 	LDD  R22,Y+@0+2
                 	LDD  R23,Y+@0+3
                 	.ENDM
                 
                 	.MACRO __GETD2S
                 	LDD  R26,Y+@0
                 	LDD  R27,Y+@0+1
                 	LDD  R24,Y+@0+2
                 	LDD  R25,Y+@0+3
                 	.ENDM
                 
                 	.MACRO __PUTD1S
                 	STD  Y+@0,R30
                 	STD  Y+@0+1,R31
                 	STD  Y+@0+2,R22
                 	STD  Y+@0+3,R23
                 	.ENDM
                 
                 	.MACRO __PUTD2S
                 	STD  Y+@0,R26
                 	STD  Y+@0+1,R27
                 	STD  Y+@0+2,R24
                 	STD  Y+@0+3,R25
                 	.ENDM
                 
                 	.MACRO __PUTDZ2
                 	STD  Z+@0,R26
                 	STD  Z+@0+1,R27
                 	STD  Z+@0+2,R24
                 	STD  Z+@0+3,R25
                 	.ENDM
                 
                 	.MACRO __CLRD1S
                 	STD  Y+@0,R30
                 	STD  Y+@0+1,R30
                 	STD  Y+@0+2,R30
                 	STD  Y+@0+3,R30
                 	.ENDM
                 
                 	.MACRO __POINTB1MN
                 	LDI  R30,LOW(@0+(@1))
                 	.ENDM
                 
                 	.MACRO __POINTW1MN
                 	LDI  R30,LOW(@0+(@1))
                 	LDI  R31,HIGH(@0+(@1))
                 	.ENDM
                 
                 	.MACRO __POINTD1M
                 	LDI  R30,LOW(@0)
                 	LDI  R31,HIGH(@0)
                 	LDI  R22,BYTE3(@0)
                 	LDI  R23,BYTE4(@0)
                 	.ENDM
                 
                 	.MACRO __POINTW1FN
                 	LDI  R30,LOW(2*@0+(@1))
                 	LDI  R31,HIGH(2*@0+(@1))
                 	.ENDM
                 
                 	.MACRO __POINTD1FN
                 	LDI  R30,LOW(2*@0+(@1))
                 	LDI  R31,HIGH(2*@0+(@1))
                 	LDI  R22,BYTE3(2*@0+(@1))
                 	LDI  R23,BYTE4(2*@0+(@1))
                 	.ENDM
                 
                 	.MACRO __POINTB2MN
                 	LDI  R26,LOW(@0+(@1))
                 	.ENDM
                 
                 	.MACRO __POINTW2MN
                 	LDI  R26,LOW(@0+(@1))
                 	LDI  R27,HIGH(@0+(@1))
                 	.ENDM
                 
                 	.MACRO __POINTBRM
                 	LDI  R@0,LOW(@1)
                 	.ENDM
                 
                 	.MACRO __POINTWRM
                 	LDI  R@0,LOW(@2)
                 	LDI  R@1,HIGH(@2)
                 	.ENDM
                 
                 	.MACRO __POINTBRMN
                 	LDI  R@0,LOW(@1+(@2))
                 	.ENDM
                 
                 	.MACRO __POINTWRMN
                 	LDI  R@0,LOW(@2+(@3))
                 	LDI  R@1,HIGH(@2+(@3))
                 	.ENDM
                 
                 	.MACRO __POINTWRFN
                 	LDI  R@0,LOW(@2*2+(@3))
                 	LDI  R@1,HIGH(@2*2+(@3))
                 	.ENDM
                 
                 	.MACRO __GETD1N
                 	LDI  R30,LOW(@0)
                 	LDI  R31,HIGH(@0)
                 	LDI  R22,BYTE3(@0)
                 	LDI  R23,BYTE4(@0)
                 	.ENDM
                 
                 	.MACRO __GETD2N
                 	LDI  R26,LOW(@0)
                 	LDI  R27,HIGH(@0)
                 	LDI  R24,BYTE3(@0)
                 	LDI  R25,BYTE4(@0)
                 	.ENDM
                 
                 	.MACRO __GETB1MN
                 	LDS  R30,@0+(@1)
                 	.ENDM
                 
                 	.MACRO __GETB1HMN
                 	LDS  R31,@0+(@1)
                 	.ENDM
                 
                 	.MACRO __GETW1MN
                 	LDS  R30,@0+(@1)
                 	LDS  R31,@0+(@1)+1
                 	.ENDM
                 
                 	.MACRO __GETD1MN
                 	LDS  R30,@0+(@1)
                 	LDS  R31,@0+(@1)+1
                 	LDS  R22,@0+(@1)+2
                 	LDS  R23,@0+(@1)+3
                 	.ENDM
                 
                 	.MACRO __GETBRMN
                 	LDS  R@0,@1+(@2)
                 	.ENDM
                 
                 	.MACRO __GETWRMN
                 	LDS  R@0,@2+(@3)
                 	LDS  R@1,@2+(@3)+1
                 	.ENDM
                 
                 	.MACRO __GETWRZ
                 	LDD  R@0,Z+@2
                 	LDD  R@1,Z+@2+1
                 	.ENDM
                 
                 	.MACRO __GETD2Z
                 	LDD  R26,Z+@0
                 	LDD  R27,Z+@0+1
                 	LDD  R24,Z+@0+2
                 	LDD  R25,Z+@0+3
                 	.ENDM
                 
                 	.MACRO __GETB2MN
                 	LDS  R26,@0+(@1)
                 	.ENDM
                 
                 	.MACRO __GETW2MN
                 	LDS  R26,@0+(@1)
                 	LDS  R27,@0+(@1)+1
                 	.ENDM
                 
                 	.MACRO __GETD2MN
                 	LDS  R26,@0+(@1)
                 	LDS  R27,@0+(@1)+1
                 	LDS  R24,@0+(@1)+2
                 	LDS  R25,@0+(@1)+3
                 	.ENDM
                 
                 	.MACRO __PUTB1MN
                 	STS  @0+(@1),R30
                 	.ENDM
                 
                 	.MACRO __PUTW1MN
                 	STS  @0+(@1),R30
                 	STS  @0+(@1)+1,R31
                 	.ENDM
                 
                 	.MACRO __PUTD1MN
                 	STS  @0+(@1),R30
                 	STS  @0+(@1)+1,R31
                 	STS  @0+(@1)+2,R22
                 	STS  @0+(@1)+3,R23
                 	.ENDM
                 
                 	.MACRO __PUTB1EN
                 	LDI  R26,LOW(@0+(@1))
                 	LDI  R27,HIGH(@0+(@1))
                 	CALL __EEPROMWRB
                 	.ENDM
                 
                 	.MACRO __PUTW1EN
                 	LDI  R26,LOW(@0+(@1))
                 	LDI  R27,HIGH(@0+(@1))
                 	CALL __EEPROMWRW
                 	.ENDM
                 
                 	.MACRO __PUTD1EN
                 	LDI  R26,LOW(@0+(@1))
                 	LDI  R27,HIGH(@0+(@1))
                 	CALL __EEPROMWRD
                 	.ENDM
                 
                 	.MACRO __PUTBR0MN
                 	STS  @0+(@1),R0
                 	.ENDM
                 
                 	.MACRO __PUTBMRN
                 	STS  @0+(@1),R@2
                 	.ENDM
                 
                 	.MACRO __PUTWMRN
                 	STS  @0+(@1),R@2
                 	STS  @0+(@1)+1,R@3
                 	.ENDM
                 
                 	.MACRO __PUTBZR
                 	STD  Z+@1,R@0
                 	.ENDM
                 
                 	.MACRO __PUTWZR
                 	STD  Z+@2,R@0
                 	STD  Z+@2+1,R@1
                 	.ENDM
                 
                 	.MACRO __GETW1R
                 	MOV  R30,R@0
                 	MOV  R31,R@1
                 	.ENDM
                 
                 	.MACRO __GETW2R
                 	MOV  R26,R@0
                 	MOV  R27,R@1
                 	.ENDM
                 
                 	.MACRO __GETWRN
                 	LDI  R@0,LOW(@2)
                 	LDI  R@1,HIGH(@2)
                 	.ENDM
                 
                 	.MACRO __PUTW1R
                 	MOV  R@0,R30
                 	MOV  R@1,R31
                 	.ENDM
                 
                 	.MACRO __PUTW2R
                 	MOV  R@0,R26
                 	MOV  R@1,R27
                 	.ENDM
                 
                 	.MACRO __ADDWRN
                 	SUBI R@0,LOW(-@2)
                 	SBCI R@1,HIGH(-@2)
                 	.ENDM
                 
                 	.MACRO __ADDWRR
                 	ADD  R@0,R@2
                 	ADC  R@1,R@3
                 	.ENDM
                 
                 	.MACRO __SUBWRN
                 	SUBI R@0,LOW(@2)
                 	SBCI R@1,HIGH(@2)
                 	.ENDM
                 
                 	.MACRO __SUBWRR
                 	SUB  R@0,R@2
                 	SBC  R@1,R@3
                 	.ENDM
                 
                 	.MACRO __ANDWRN
                 	ANDI R@0,LOW(@2)
                 	ANDI R@1,HIGH(@2)
                 	.ENDM
                 
                 	.MACRO __ANDWRR
                 	AND  R@0,R@2
                 	AND  R@1,R@3
                 	.ENDM
                 
                 	.MACRO __ORWRN
                 	ORI  R@0,LOW(@2)
                 	ORI  R@1,HIGH(@2)
                 	.ENDM
                 
                 	.MACRO __ORWRR
                 	OR   R@0,R@2
                 	OR   R@1,R@3
                 	.ENDM
                 
                 	.MACRO __EORWRR
                 	EOR  R@0,R@2
                 	EOR  R@1,R@3
                 	.ENDM
                 
                 	.MACRO __GETWRS
                 	LDD  R@0,Y+@2
                 	LDD  R@1,Y+@2+1
                 	.ENDM
                 
                 	.MACRO __PUTBSR
                 	STD  Y+@1,R@0
                 	.ENDM
                 
                 	.MACRO __PUTWSR
                 	STD  Y+@2,R@0
                 	STD  Y+@2+1,R@1
                 	.ENDM
                 
                 	.MACRO __MOVEWRR
                 	MOV  R@0,R@2
                 	MOV  R@1,R@3
                 	.ENDM
                 
                 	.MACRO __INWR
                 	IN   R@0,@2
                 	IN   R@1,@2+1
                 	.ENDM
                 
                 	.MACRO __OUTWR
                 	OUT  @2+1,R@1
                 	OUT  @2,R@0
                 	.ENDM
                 
                 	.MACRO __CALL1MN
                 	LDS  R30,@0+(@1)
                 	LDS  R31,@0+(@1)+1
                 	ICALL
                 	.ENDM
                 
                 	.MACRO __CALL1FN
                 	LDI  R30,LOW(2*@0+(@1))
                 	LDI  R31,HIGH(2*@0+(@1))
                 	CALL __GETW1PF
                 	ICALL
                 	.ENDM
                 
                 	.MACRO __CALL2EN
                 	LDI  R26,LOW(@0+(@1))
                 	LDI  R27,HIGH(@0+(@1))
                 	CALL __EEPROMRDW
                 	ICALL
                 	.ENDM
                 
                 	.MACRO __GETW1STACK
                 	IN   R26,SPL
                 	IN   R27,SPH
                 	ADIW R26,@0+1
                 	LD   R30,X+
                 	LD   R31,X
                 	.ENDM
                 
                 	.MACRO __GETD1STACK
                 	IN   R26,SPL
                 	IN   R27,SPH
                 	ADIW R26,@0+1
                 	LD   R30,X+
                 	LD   R31,X+
                 	LD   R22,X
                 	.ENDM
                 
                 	.MACRO __NBST
                 	BST  R@0,@1
                 	IN   R30,SREG
                 	LDI  R31,0x40
                 	EOR  R30,R31
                 	OUT  SREG,R30
                 	.ENDM
                 
                 
                 	.MACRO __PUTB1SN
                 	LDD  R26,Y+@0
                 	LDD  R27,Y+@0+1
                 	SUBI R26,LOW(-@1)
                 	SBCI R27,HIGH(-@1)
                 	ST   X,R30
                 	.ENDM
                 
                 	.MACRO __PUTW1SN
                 	LDD  R26,Y+@0
                 	LDD  R27,Y+@0+1
                 	SUBI R26,LOW(-@1)
                 	SBCI R27,HIGH(-@1)
                 	ST   X+,R30
                 	ST   X,R31
                 	.ENDM
                 
                 	.MACRO __PUTD1SN
                 	LDD  R26,Y+@0
                 	LDD  R27,Y+@0+1
                 	SUBI R26,LOW(-@1)
                 	SBCI R27,HIGH(-@1)
                 	CALL __PUTDP1
                 	.ENDM
                 
                 	.MACRO __PUTB1SNS
                 	LDD  R26,Y+@0
                 	LDD  R27,Y+@0+1
                 	ADIW R26,@1
                 	ST   X,R30
                 	.ENDM
                 
                 	.MACRO __PUTW1SNS
                 	LDD  R26,Y+@0
                 	LDD  R27,Y+@0+1
                 	ADIW R26,@1
                 	ST   X+,R30
                 	ST   X,R31
                 	.ENDM
                 
                 	.MACRO __PUTD1SNS
                 	LDD  R26,Y+@0
                 	LDD  R27,Y+@0+1
                 	ADIW R26,@1
                 	CALL __PUTDP1
                 	.ENDM
                 
                 	.MACRO __PUTB1PMN
                 	LDS  R26,@0
                 	LDS  R27,@0+1
                 	SUBI R26,LOW(-@1)
                 	SBCI R27,HIGH(-@1)
                 	ST   X,R30
                 	.ENDM
                 
                 	.MACRO __PUTW1PMN
                 	LDS  R26,@0
                 	LDS  R27,@0+1
                 	SUBI R26,LOW(-@1)
                 	SBCI R27,HIGH(-@1)
                 	ST   X+,R30
                 	ST   X,R31
                 	.ENDM
                 
                 	.MACRO __PUTD1PMN
                 	LDS  R26,@0
                 	LDS  R27,@0+1
                 	SUBI R26,LOW(-@1)
                 	SBCI R27,HIGH(-@1)
                 	CALL __PUTDP1
                 	.ENDM
                 
                 	.MACRO __PUTB1PMNS
                 	LDS  R26,@0
                 	LDS  R27,@0+1
                 	ADIW R26,@1
                 	ST   X,R30
                 	.ENDM
                 
                 	.MACRO __PUTW1PMNS
                 	LDS  R26,@0
                 	LDS  R27,@0+1
                 	ADIW R26,@1
                 	ST   X+,R30
                 	ST   X,R31
                 	.ENDM
                 
                 	.MACRO __PUTD1PMNS
                 	LDS  R26,@0
                 	LDS  R27,@0+1
                 	ADIW R26,@1
                 	CALL __PUTDP1
                 	.ENDM
                 
                 	.MACRO __PUTB1RN
                 	MOVW R26,R@0
                 	SUBI R26,LOW(-@1)
                 	SBCI R27,HIGH(-@1)
                 	ST   X,R30
                 	.ENDM
                 
                 	.MACRO __PUTW1RN
                 	MOVW R26,R@0
                 	SUBI R26,LOW(-@1)
                 	SBCI R27,HIGH(-@1)
                 	ST   X+,R30
                 	ST   X,R31
                 	.ENDM
                 
                 	.MACRO __PUTD1RN
                 	MOVW R26,R@0
                 	SUBI R26,LOW(-@1)
                 	SBCI R27,HIGH(-@1)
                 	CALL __PUTDP1
                 	.ENDM
                 
                 	.MACRO __PUTB1RNS
                 	MOVW R26,R@0
                 	ADIW R26,@1
                 	ST   X,R30
                 	.ENDM
                 
                 	.MACRO __PUTW1RNS
                 	MOVW R26,R@0
                 	ADIW R26,@1
                 	ST   X+,R30
                 	ST   X,R31
                 	.ENDM
                 
                 	.MACRO __PUTD1RNS
                 	MOVW R26,R@0
                 	ADIW R26,@1
                 	CALL __PUTDP1
                 	.ENDM
                 
                 	.MACRO __PUTB1RON
                 	MOV  R26,R@0
                 	MOV  R27,R@1
                 	SUBI R26,LOW(-@2)
                 	SBCI R27,HIGH(-@2)
                 	ST   X,R30
                 	.ENDM
                 
                 	.MACRO __PUTW1RON
                 	MOV  R26,R@0
                 	MOV  R27,R@1
                 	SUBI R26,LOW(-@2)
                 	SBCI R27,HIGH(-@2)
                 	ST   X+,R30
                 	ST   X,R31
                 	.ENDM
                 
                 	.MACRO __PUTD1RON
                 	MOV  R26,R@0
                 	MOV  R27,R@1
                 	SUBI R26,LOW(-@2)
                 	SBCI R27,HIGH(-@2)
                 	CALL __PUTDP1
                 	.ENDM
                 
                 	.MACRO __PUTB1RONS
                 	MOV  R26,R@0
                 	MOV  R27,R@1
                 	ADIW R26,@2
                 	ST   X,R30
                 	.ENDM
                 
                 	.MACRO __PUTW1RONS
                 	MOV  R26,R@0
                 	MOV  R27,R@1
                 	ADIW R26,@2
                 	ST   X+,R30
                 	ST   X,R31
                 	.ENDM
                 
                 	.MACRO __PUTD1RONS
                 	MOV  R26,R@0
                 	MOV  R27,R@1
                 	ADIW R26,@2
                 	CALL __PUTDP1
                 	.ENDM
                 
                 
                 	.MACRO __GETB1SX
                 	MOVW R30,R28
                 	SUBI R30,LOW(-@0)
                 	SBCI R31,HIGH(-@0)
                 	LD   R30,Z
                 	.ENDM
                 
                 	.MACRO __GETB1HSX
                 	MOVW R30,R28
                 	SUBI R30,LOW(-@0)
                 	SBCI R31,HIGH(-@0)
                 	LD   R31,Z
                 	.ENDM
                 
                 	.MACRO __GETW1SX
                 	MOVW R30,R28
                 	SUBI R30,LOW(-@0)
                 	SBCI R31,HIGH(-@0)
                 	LD   R0,Z+
                 	LD   R31,Z
                 	MOV  R30,R0
                 	.ENDM
                 
                 	.MACRO __GETD1SX
                 	MOVW R30,R28
                 	SUBI R30,LOW(-@0)
                 	SBCI R31,HIGH(-@0)
                 	LD   R0,Z+
                 	LD   R1,Z+
                 	LD   R22,Z+
                 	LD   R23,Z
                 	MOVW R30,R0
                 	.ENDM
                 
                 	.MACRO __GETB2SX
                 	MOVW R26,R28
                 	SUBI R26,LOW(-@0)
                 	SBCI R27,HIGH(-@0)
                 	LD   R26,X
                 	.ENDM
                 
                 	.MACRO __GETW2SX
                 	MOVW R26,R28
                 	SUBI R26,LOW(-@0)
                 	SBCI R27,HIGH(-@0)
                 	LD   R0,X+
                 	LD   R27,X
                 	MOV  R26,R0
                 	.ENDM
                 
                 	.MACRO __GETD2SX
                 	MOVW R26,R28
                 	SUBI R26,LOW(-@0)
                 	SBCI R27,HIGH(-@0)
                 	LD   R0,X+
                 	LD   R1,X+
                 	LD   R24,X+
                 	LD   R25,X
                 	MOVW R26,R0
                 	.ENDM
                 
                 	.MACRO __GETBRSX
                 	MOVW R30,R28
                 	SUBI R30,LOW(-@1)
                 	SBCI R31,HIGH(-@1)
                 	LD   R@0,Z
                 	.ENDM
                 
                 	.MACRO __GETWRSX
                 	MOVW R30,R28
                 	SUBI R30,LOW(-@2)
                 	SBCI R31,HIGH(-@2)
                 	LD   R@0,Z+
                 	LD   R@1,Z
                 	.ENDM
                 
                 	.MACRO __GETBRSX2
                 	MOVW R26,R28
                 	SUBI R26,LOW(-@1)
                 	SBCI R27,HIGH(-@1)
                 	LD   R@0,X
                 	.ENDM
                 
                 	.MACRO __GETWRSX2
                 	MOVW R26,R28
                 	SUBI R26,LOW(-@2)
                 	SBCI R27,HIGH(-@2)
                 	LD   R@0,X+
                 	LD   R@1,X
                 	.ENDM
                 
                 	.MACRO __LSLW8SX
                 	MOVW R30,R28
                 	SUBI R30,LOW(-@0)
                 	SBCI R31,HIGH(-@0)
                 	LD   R31,Z
                 	CLR  R30
                 	.ENDM
                 
                 	.MACRO __PUTB1SX
                 	MOVW R26,R28
                 	SUBI R26,LOW(-@0)
                 	SBCI R27,HIGH(-@0)
                 	ST   X,R30
                 	.ENDM
                 
                 	.MACRO __PUTW1SX
                 	MOVW R26,R28
                 	SUBI R26,LOW(-@0)
                 	SBCI R27,HIGH(-@0)
                 	ST   X+,R30
                 	ST   X,R31
                 	.ENDM
                 
                 	.MACRO __PUTD1SX
                 	MOVW R26,R28
                 	SUBI R26,LOW(-@0)
                 	SBCI R27,HIGH(-@0)
                 	ST   X+,R30
                 	ST   X+,R31
                 	ST   X+,R22
                 	ST   X,R23
                 	.ENDM
                 
                 	.MACRO __CLRW1SX
                 	MOVW R26,R28
                 	SUBI R26,LOW(-@0)
                 	SBCI R27,HIGH(-@0)
                 	ST   X+,R30
                 	ST   X,R30
                 	.ENDM
                 
                 	.MACRO __CLRD1SX
                 	MOVW R26,R28
                 	SUBI R26,LOW(-@0)
                 	SBCI R27,HIGH(-@0)
                 	ST   X+,R30
                 	ST   X+,R30
                 	ST   X+,R30
                 	ST   X,R30
                 	.ENDM
                 
                 	.MACRO __PUTB2SX
                 	MOVW R30,R28
                 	SUBI R30,LOW(-@0)
                 	SBCI R31,HIGH(-@0)
                 	ST   Z,R26
                 	.ENDM
                 
                 	.MACRO __PUTW2SX
                 	MOVW R30,R28
                 	SUBI R30,LOW(-@0)
                 	SBCI R31,HIGH(-@0)
                 	ST   Z+,R26
                 	ST   Z,R27
                 	.ENDM
                 
                 	.MACRO __PUTD2SX
                 	MOVW R30,R28
                 	SUBI R30,LOW(-@0)
                 	SBCI R31,HIGH(-@0)
                 	ST   Z+,R26
                 	ST   Z+,R27
                 	ST   Z+,R24
                 	ST   Z,R25
                 	.ENDM
                 
                 	.MACRO __PUTBSRX
                 	MOVW R30,R28
                 	SUBI R30,LOW(-@1)
                 	SBCI R31,HIGH(-@1)
                 	ST   Z,R@0
                 	.ENDM
                 
                 	.MACRO __PUTWSRX
                 	MOVW R30,R28
                 	SUBI R30,LOW(-@2)
                 	SBCI R31,HIGH(-@2)
                 	ST   Z+,R@0
                 	ST   Z,R@1
                 	.ENDM
                 
                 	.MACRO __PUTB1SNX
                 	MOVW R26,R28
                 	SUBI R26,LOW(-@0)
                 	SBCI R27,HIGH(-@0)
                 	LD   R0,X+
                 	LD   R27,X
                 	MOV  R26,R0
                 	SUBI R26,LOW(-@1)
                 	SBCI R27,HIGH(-@1)
                 	ST   X,R30
                 	.ENDM
                 
                 	.MACRO __PUTW1SNX
                 	MOVW R26,R28
                 	SUBI R26,LOW(-@0)
                 	SBCI R27,HIGH(-@0)
                 	LD   R0,X+
                 	LD   R27,X
                 	MOV  R26,R0
                 	SUBI R26,LOW(-@1)
                 	SBCI R27,HIGH(-@1)
                 	ST   X+,R30
                 	ST   X,R31
                 	.ENDM
                 
                 	.MACRO __PUTD1SNX
                 	MOVW R26,R28
                 	SUBI R26,LOW(-@0)
                 	SBCI R27,HIGH(-@0)
                 	LD   R0,X+
                 	LD   R27,X
                 	MOV  R26,R0
                 	SUBI R26,LOW(-@1)
                 	SBCI R27,HIGH(-@1)
                 	ST   X+,R30
                 	ST   X+,R31
                 	ST   X+,R22
                 	ST   X,R23
                 	.ENDM
                 
                 	.MACRO __MULBRR
                 	MULS R@0,R@1
                 	MOVW R30,R0
                 	.ENDM
                 
                 	.MACRO __MULBRRU
                 	MUL  R@0,R@1
                 	MOVW R30,R0
                 	.ENDM
                 
                 	.MACRO __MULBRR0
                 	MULS R@0,R@1
                 	.ENDM
                 
                 	.MACRO __MULBRRU0
                 	MUL  R@0,R@1
                 	.ENDM
                 
                 	.MACRO __MULBNWRU
                 	LDI  R26,@2
                 	MUL  R26,R@0
                 	MOVW R30,R0
                 	MUL  R26,R@1
                 	ADD  R31,R0
                 	.ENDM
                 
                 ;NAME DEFINITIONS FOR GLOBAL VARIABLES ALLOCATED TO REGISTERS
                 	.DEF _temp_control=R5
                 	.DEF _bias=R4
                 	.DEF _Vop=R7
                 	.DEF _disp_config=R6
                 	.DEF _LcdCacheIdx=R8
                 	.DEF _argc=R11
                 	.DEF _i=R10
                 	.DEF _flag=R13
                 	.DEF _TX_flag=R12
                 
                 	.CSEG
                 	.ORG 0x00
                 
                 ;START OF CODE MARKER
                 __START_OF_CODE:
                 
                 ;INTERRUPT VECTORS
000000 940c 0598 	JMP  __RESET
000002 940c 0000 	JMP  0x00
000004 940c 0000 	JMP  0x00
000006 940c 0000 	JMP  0x00
000008 940c 0000 	JMP  0x00
00000a 940c 0000 	JMP  0x00
00000c 940c 0000 	JMP  0x00
00000e 940c 0000 	JMP  0x00
000010 940c 0000 	JMP  0x00
000012 940c 118f 	JMP  _timer2_comp_isr
000014 940c 0000 	JMP  0x00
000016 940c 0000 	JMP  0x00
000018 940c 0000 	JMP  0x00
00001a 940c 0000 	JMP  0x00
00001c 940c 0000 	JMP  0x00
00001e 940c 0000 	JMP  0x00
000020 940c 0a15 	JMP  _timer0_ovf_isr
000022 940c 0948 	JMP  _spi_isr
000024 940c 07f9 	JMP  _usart0_rxc
000026 940c 0749 	JMP  _usart0_dre_my
000028 940c 0000 	JMP  0x00
00002a 940c 0c4d 	JMP  _adc_isr
00002c 940c 0000 	JMP  0x00
00002e 940c 0000 	JMP  0x00
000030 940c 0000 	JMP  0x00
000032 940c 0000 	JMP  0x00
000034 940c 0000 	JMP  0x00
000036 940c 0000 	JMP  0x00
000038 940c 0000 	JMP  0x00
00003a 940c 0000 	JMP  0x00
00003c 940c 0821 	JMP  _usart1_rxc
00003e 940c 076b 	JMP  _usart1_dre_my
000040 940c 0000 	JMP  0x00
000042 940c 0ad4 	JMP  _twi_isr
000044 940c 0000 	JMP  0x00
                 
                 _Help:
000046 6548
000047 706c
C:\Users\abc\Dropbox\ADAPTER_CV_PROJ_v7 - current\List\adapter.asm(1115): warning: .cseg .db misalignment - padding zero byte
000048 0000      	.DB  0x48,0x65,0x6C,0x70,0x0
                 _Set:
000049 6553
00004a 0074      	.DB  0x53,0x65,0x74,0x0
                 _Uart:
00004b 6155
00004c 7472
C:\Users\abc\Dropbox\ADAPTER_CV_PROJ_v7 - current\List\adapter.asm(1119): warning: .cseg .db misalignment - padding zero byte
00004d 0000      	.DB  0x55,0x61,0x72,0x74,0x0
                 _Mode:
00004e 6f4d
00004f 6564
C:\Users\abc\Dropbox\ADAPTER_CV_PROJ_v7 - current\List\adapter.asm(1121): warning: .cseg .db misalignment - padding zero byte
000050 0000      	.DB  0x4D,0x6F,0x64,0x65,0x0
                 _Speed:
000051 7053
000052 6565
000053 0064      	.DB  0x53,0x70,0x65,0x65,0x64,0x0
                 _Spi:
000054 7053
000055 0069      	.DB  0x53,0x70,0x69,0x0
                 _Prescaller:
000056 7250
000057 7365
000058 0063      	.DB  0x50,0x72,0x65,0x73,0x63,0x0
                 _PhaPol:
000059 7070
C:\Users\abc\Dropbox\ADAPTER_CV_PROJ_v7 - current\List\adapter.asm(1129): warning: .cseg .db misalignment - padding zero byte
00005a 0000      	.DB  0x70,0x70,0x0
                 _I2c:
00005b 3249
00005c 0063      	.DB  0x49,0x32,0x63,0x0
                 _W:
00005d 0057      	.DB  0x57,0x0
                 _reset:
00005e 7372
00005f 0074      	.DB  0x72,0x73,0x74,0x0
                 _boot:
000060 6f62
000061 746f
C:\Users\abc\Dropbox\ADAPTER_CV_PROJ_v7 - current\List\adapter.asm(1137): warning: .cseg .db misalignment - padding zero byte
000062 0000      	.DB  0x62,0x6F,0x6F,0x74,0x0
                 _dbg:
000063 6264
000064 0067      	.DB  0x64,0x62,0x67,0x0
                 _error:
000065 4520
000066 000d      	.DB  0x20,0x45,0xD,0x0
                 _ok:
000067 6f20
000068 0d6b
C:\Users\abc\Dropbox\ADAPTER_CV_PROJ_v7 - current\List\adapter.asm(1143): warning: .cseg .db misalignment - padding zero byte
000069 0000      	.DB  0x20,0x6F,0x6B,0xD,0x0
                 _largeValue:
00006a 4c20
00006b 7261
00006c 6567
00006d 765f      	.DB  0x20,0x4C,0x61,0x72,0x67,0x65,0x5F,0x76
00006e 6c61
00006f 6575
000070 000d      	.DB  0x61,0x6C,0x75,0x65,0xD,0x0
                 _wrongValue:
000071 5720
000072 6f72
000073 676e
000074 765f      	.DB  0x20,0x57,0x72,0x6F,0x6E,0x67,0x5F,0x76
000075 6c61
000076 6575
000077 000d      	.DB  0x61,0x6C,0x75,0x65,0xD,0x0
                 _help_mess_0:
000078 3e0d
000079 3e3e
00007a 4820
00007b 4c45      	.DB  0xD,0x3E,0x3E,0x3E,0x20,0x48,0x45,0x4C
00007c 2050
00007d 3c3c
00007e 0d3c
00007f 4320      	.DB  0x50,0x20,0x3C,0x3C,0x3C,0xD,0x20,0x43
000080 6d6f
000081 616d
000082 646e
000083 3a73      	.DB  0x6F,0x6D,0x6D,0x61,0x6E,0x64,0x73,0x3A
000084 000d      	.DB  0xD,0x0
                 _help_mess_1:
000085 200d
000086 6553
000087 2074
000088 492d      	.DB  0xD,0x20,0x53,0x65,0x74,0x20,0x2D,0x49
000089 746e
00008a 7265
00008b 6166
00008c 6563      	.DB  0x6E,0x74,0x65,0x72,0x66,0x61,0x63,0x65
00008d 6e5f
00008e 6d61
00008f 2d65
000090 2d20      	.DB  0x5F,0x6E,0x61,0x6D,0x65,0x2D,0x20,0x2D
000091 756e
000092 626d
000093 7265
000094 202d      	.DB  0x6E,0x75,0x6D,0x62,0x65,0x72,0x2D,0x20
000095 6f4d
000096 6564
000097 2d20
000098 6176      	.DB  0x4D,0x6F,0x64,0x65,0x20,0x2D,0x76,0x61
000099 756c
00009a 2865
00009b 706f
00009c 6974      	.DB  0x6C,0x75,0x65,0x28,0x6F,0x70,0x74,0x69
00009d 6e6f
00009e 6c61
00009f 2d29
0000a0 5320      	.DB  0x6F,0x6E,0x61,0x6C,0x29,0x2D,0x20,0x53
0000a1 6570
0000a2 6465
0000a3 2d20
0000a4 6176      	.DB  0x70,0x65,0x65,0x64,0x20,0x2D,0x76,0x61
0000a5 756c
0000a6 2865
0000a7 706f
0000a8 6974      	.DB  0x6C,0x75,0x65,0x28,0x6F,0x70,0x74,0x69
0000a9 6e6f
0000aa 6c61
0000ab 2d29
C:\Users\abc\Dropbox\ADAPTER_CV_PROJ_v7 - current\List\adapter.asm(1165): warning: .cseg .db misalignment - padding zero byte
0000ac 0000      	.DB  0x6F,0x6E,0x61,0x6C,0x29,0x2D,0x0
                 _help_mess_2:
0000ad 200d
0000ae 2057
0000af 2020
0000b0 492d      	.DB  0xD,0x20,0x57,0x20,0x20,0x20,0x2D,0x49
0000b1 746e
0000b2 7265
0000b3 6166
0000b4 6563      	.DB  0x6E,0x74,0x65,0x72,0x66,0x61,0x63,0x65
0000b5 6e5f
0000b6 6d61
0000b7 2d65
0000b8 2d20      	.DB  0x5F,0x6E,0x61,0x6D,0x65,0x2D,0x20,0x2D
0000b9 756e
0000ba 626d
0000bb 7265
0000bc 202d      	.DB  0x6E,0x75,0x6D,0x62,0x65,0x72,0x2D,0x20
0000bd 642d
0000be 7461
0000bf 2d61
C:\Users\abc\Dropbox\ADAPTER_CV_PROJ_v7 - current\List\adapter.asm(1171): warning: .cseg .db misalignment - padding zero byte
0000c0 0000      	.DB  0x2D,0x64,0x61,0x74,0x61,0x2D,0x0
                 _help_mess_3:
0000c1 200d
0000c2 6547
0000c3 2074
0000c4 652d      	.DB  0xD,0x20,0x47,0x65,0x74,0x20,0x2D,0x65
0000c5 746e
0000c6 7469
0000c7 2d79
C:\Users\abc\Dropbox\ADAPTER_CV_PROJ_v7 - current\List\adapter.asm(1174): warning: .cseg .db misalignment - padding zero byte
0000c8 0000      	.DB  0x6E,0x74,0x69,0x74,0x79,0x2D,0x0
                 _help_mess_4:
0000c9 200d
0000ca 4920
0000cb 746e
0000cc 7265      	.DB  0xD,0x20,0x20,0x49,0x6E,0x74,0x65,0x72
0000cd 6166
0000ce 6563
0000cf 2073
0000d0 7661      	.DB  0x66,0x61,0x63,0x65,0x73,0x20,0x61,0x76
0000d1 6961
0000d2 616c
0000d3 6c62
0000d4 3a65      	.DB  0x61,0x69,0x6C,0x61,0x62,0x6C,0x65,0x3A
0000d5 200d
0000d6 2020
0000d7 6155
0000d8 7472      	.DB  0xD,0x20,0x20,0x20,0x55,0x61,0x72,0x74
0000d9 3028
0000da 312c
0000db 0d29
0000dc 2020      	.DB  0x28,0x30,0x2C,0x31,0x29,0xD,0x20,0x20
0000dd 5320
0000de 6970
0000df 3028
0000e0 482d      	.DB  0x20,0x53,0x70,0x69,0x28,0x30,0x2D,0x48
0000e1 7261
0000e2 2c64
0000e3 3120
0000e4 532d      	.DB  0x61,0x72,0x64,0x2C,0x20,0x31,0x2D,0x53
0000e5 666f
0000e6 2974
0000e7 000d      	.DB  0x6F,0x66,0x74,0x29,0xD,0x0
                 _help_Uart_0:
0000e8 3e0d
0000e9 3e3e
0000ea 5520
0000eb 5241      	.DB  0xD,0x3E,0x3E,0x3E,0x20,0x55,0x41,0x52
0000ec 5f54
0000ed 4548
0000ee 504c
0000ef 3c20      	.DB  0x54,0x5F,0x48,0x45,0x4C,0x50,0x20,0x3C
0000f0 3c3c
0000f1 200d
0000f2 6f4d
0000f3 6564      	.DB  0x3C,0x3C,0xD,0x20,0x4D,0x6F,0x64,0x65
0000f4 203a
0000f5 2d30
0000f6 4e20
0000f7 524f      	.DB  0x3A,0x20,0x30,0x2D,0x20,0x4E,0x4F,0x52
0000f8 414d
0000f9 3b4c
0000fa 3120
0000fb 202d      	.DB  0x4D,0x41,0x4C,0x3B,0x20,0x31,0x2D,0x20
0000fc 4f44
0000fd 4255
0000fe 454c
0000ff 2044      	.DB  0x44,0x4F,0x55,0x42,0x4C,0x45,0x44,0x20
000100 7073
000101 6565
000102 0064      	.DB  0x73,0x70,0x65,0x65,0x64,0x0
                 _help_Uart_1:
000103 200d
000104 7053
000105 6565
000106 3a64      	.DB  0xD,0x20,0x53,0x70,0x65,0x65,0x64,0x3A
000107 6220
000108 7561
000109 2f64
00010a 3031      	.DB  0x20,0x62,0x61,0x75,0x64,0x2F,0x31,0x30
00010b 2030
00010c 4528
00010d 3a78
00010e 3520      	.DB  0x30,0x20,0x28,0x45,0x78,0x3A,0x20,0x35
00010f 3637
000110 6920
000111 2073
000112 3735      	.DB  0x37,0x36,0x20,0x69,0x73,0x20,0x35,0x37
000113 3036
000114 2930
000115 000d      	.DB  0x36,0x30,0x30,0x29,0xD,0x0
                 _help_Spi_0:
000116 3e0d
000117 3e3e
000118 5320
000119 4950      	.DB  0xD,0x3E,0x3E,0x3E,0x20,0x53,0x50,0x49
00011a 485f
00011b 4c45
00011c 2050
00011d 3c3c      	.DB  0x5F,0x48,0x45,0x4C,0x50,0x20,0x3C,0x3C
00011e 0d3c
00011f 4d20
000120 646f
000121 3a65      	.DB  0x3C,0xD,0x20,0x4D,0x6F,0x64,0x65,0x3A
000122 3020
000123 202d
000124 4c53
000125 5641      	.DB  0x20,0x30,0x2D,0x20,0x53,0x4C,0x41,0x56
000126 3b45
000127 3120
000128 202d
000129 414d      	.DB  0x45,0x3B,0x20,0x31,0x2D,0x20,0x4D,0x41
00012a 5453
00012b 5245
00012c 000a      	.DB  0x53,0x54,0x45,0x52,0xA,0x0
                 _help_Spi_1:
00012d 200d
00012e 7250
00012f 7365
000130 6163      	.DB  0xD,0x20,0x50,0x72,0x65,0x73,0x63,0x61
000131 6c6c
000132 7265
000133 203a
000134 6f70      	.DB  0x6C,0x6C,0x65,0x72,0x3A,0x20,0x70,0x6F
000135 2077
000136 666f
000137 3220
000138 2820      	.DB  0x77,0x20,0x6F,0x66,0x20,0x32,0x20,0x28
000139 7845
00013a 203a
00013b 7250
00013c 7365      	.DB  0x45,0x78,0x3A,0x20,0x50,0x72,0x65,0x73
00013d 2063
00013e 3631
00013f 0d29
C:\Users\abc\Dropbox\ADAPTER_CV_PROJ_v7 - current\List\adapter.asm(1210): warning: .cseg .db misalignment - padding zero byte
000140 0000      	.DB  0x63,0x20,0x31,0x36,0x29,0xD,0x0
                 _table:
000141 0000
000142 0000
000143 0000
000144 5f00      	.DB  0x0,0x0,0x0,0x0,0x0,0x0,0x0,0x5F
000145 0000
000146 0700
000147 0700
000148 1400      	.DB  0x0,0x0,0x0,0x7,0x0,0x7,0x0,0x14
000149 147f
00014a 147f
00014b 2a24
00014c 2a7f      	.DB  0x7F,0x14,0x7F,0x14,0x24,0x2A,0x7F,0x2A
00014d 2312
00014e 0813
00014f 6264
000150 4936      	.DB  0x12,0x23,0x13,0x8,0x64,0x62,0x36,0x49
000151 2255
000152 0050
000153 0305
000154 0000      	.DB  0x55,0x22,0x50,0x0,0x5,0x3,0x0,0x0
000155 1c00
000156 4122
000157 0000
000158 2241      	.DB  0x0,0x1C,0x22,0x41,0x0,0x0,0x41,0x22
000159 001c
00015a 0814
00015b 083e
00015c 0814      	.DB  0x1C,0x0,0x14,0x8,0x3E,0x8,0x14,0x8
00015d 3e08
00015e 0808
00015f 5000
000160 0030      	.DB  0x8,0x3E,0x8,0x8,0x0,0x50,0x30,0x0
000161 0800
000162 0808
000163 0808
000164 6000      	.DB  0x0,0x8,0x8,0x8,0x8,0x8,0x0,0x60
000165 0060
000166 2000
000167 0810
000168 0204      	.DB  0x60,0x0,0x0,0x20,0x10,0x8,0x4,0x2
000169 0000
00016a 0000
00016b 0000
00016c 5f00      	.DB  0x0,0x0,0x0,0x0,0x0,0x0,0x0,0x5F
00016d 0000
00016e 0700
00016f 0700
000170 1400      	.DB  0x0,0x0,0x0,0x7,0x0,0x7,0x0,0x14
000171 147f
000172 147f
000173 2a24
000174 2a7f      	.DB  0x7F,0x14,0x7F,0x14,0x24,0x2A,0x7F,0x2A
000175 2312
000176 0813
000177 6264
000178 4936      	.DB  0x12,0x23,0x13,0x8,0x64,0x62,0x36,0x49
000179 2255
00017a 0050
00017b 0305
00017c 0000      	.DB  0x55,0x22,0x50,0x0,0x5,0x3,0x0,0x0
00017d 1c00
00017e 4122
00017f 0000
000180 2241      	.DB  0x0,0x1C,0x22,0x41,0x0,0x0,0x41,0x22
000181 001c
000182 0814
000183 083e
000184 0814      	.DB  0x1C,0x0,0x14,0x8,0x3E,0x8,0x14,0x8
000185 3e08
000186 0808
000187 5000
000188 0030      	.DB  0x8,0x3E,0x8,0x8,0x0,0x50,0x30,0x0
000189 0800
00018a 0808
00018b 0808
00018c 6000      	.DB  0x0,0x8,0x8,0x8,0x8,0x8,0x0,0x60
00018d 0060
00018e 2000
00018f 0810
000190 0204      	.DB  0x60,0x0,0x0,0x20,0x10,0x8,0x4,0x2
000191 0000
000192 0000
000193 0000
000194 5f00      	.DB  0x0,0x0,0x0,0x0,0x0,0x0,0x0,0x5F
000195 0000
000196 0700
000197 0700
000198 1400      	.DB  0x0,0x0,0x0,0x7,0x0,0x7,0x0,0x14
000199 147f
00019a 147f
00019b 2a24
00019c 2a7f      	.DB  0x7F,0x14,0x7F,0x14,0x24,0x2A,0x7F,0x2A
00019d 2312
00019e 0813
00019f 6264
0001a0 4936      	.DB  0x12,0x23,0x13,0x8,0x64,0x62,0x36,0x49
0001a1 2255
0001a2 0050
0001a3 0305
0001a4 0000      	.DB  0x55,0x22,0x50,0x0,0x5,0x3,0x0,0x0
0001a5 1c00
0001a6 4122
0001a7 0000
0001a8 2241      	.DB  0x0,0x1C,0x22,0x41,0x0,0x0,0x41,0x22
0001a9 001c
0001aa 0814
0001ab 083e
0001ac 0814      	.DB  0x1C,0x0,0x14,0x8,0x3E,0x8,0x14,0x8
0001ad 3e08
0001ae 0808
0001af 5000
0001b0 0030      	.DB  0x8,0x3E,0x8,0x8,0x0,0x50,0x30,0x0
0001b1 0800
0001b2 0808
0001b3 0808
0001b4 6000      	.DB  0x0,0x8,0x8,0x8,0x8,0x8,0x0,0x60
0001b5 0060
0001b6 2000
0001b7 0810
0001b8 0204      	.DB  0x60,0x0,0x0,0x20,0x10,0x8,0x4,0x2
0001b9 513e
0001ba 4549
0001bb 003e
0001bc 7f42      	.DB  0x3E,0x51,0x49,0x45,0x3E,0x0,0x42,0x7F
0001bd 0040
0001be 6142
0001bf 4951
0001c0 2146      	.DB  0x40,0x0,0x42,0x61,0x51,0x49,0x46,0x21
0001c1 4541
0001c2 314b
0001c3 1418
0001c4 7f12      	.DB  0x41,0x45,0x4B,0x31,0x18,0x14,0x12,0x7F
0001c5 2710
0001c6 4545
0001c7 3945
0001c8 4a3c      	.DB  0x10,0x27,0x45,0x45,0x45,0x39,0x3C,0x4A
0001c9 4949
0001ca 0130
0001cb 0971
0001cc 0305      	.DB  0x49,0x49,0x30,0x1,0x71,0x9,0x5,0x3
0001cd 4936
0001ce 4949
0001cf 0636
0001d0 4949      	.DB  0x36,0x49,0x49,0x49,0x36,0x6,0x49,0x49
0001d1 1e29
0001d2 3600
0001d3 0036
0001d4 0000      	.DB  0x29,0x1E,0x0,0x36,0x36,0x0,0x0,0x0
0001d5 3656
0001d6 0000
0001d7 1408
0001d8 4122      	.DB  0x56,0x36,0x0,0x0,0x8,0x14,0x22,0x41
0001d9 1400
0001da 1414
0001db 1414
0001dc 4100      	.DB  0x0,0x14,0x14,0x14,0x14,0x14,0x0,0x41
0001dd 1422
0001de 0208
0001df 5101
0001e0 0609      	.DB  0x22,0x14,0x8,0x2,0x1,0x51,0x9,0x6
0001e1 4932
0001e2 4179
0001e3 7e3e
0001e4 1111      	.DB  0x32,0x49,0x79,0x41,0x3E,0x7E,0x11,0x11
0001e5 7e11
0001e6 497f
0001e7 4949
0001e8 3e36      	.DB  0x11,0x7E,0x7F,0x49,0x49,0x49,0x36,0x3E
0001e9 4141
0001ea 2241
0001eb 417f
0001ec 2241      	.DB  0x41,0x41,0x41,0x22,0x7F,0x41,0x41,0x22
0001ed 7f1c
0001ee 4949
0001ef 4149
0001f0 097f      	.DB  0x1C,0x7F,0x49,0x49,0x49,0x41,0x7F,0x9
0001f1 0909
0001f2 3e01
0001f3 4941
0001f4 7a49      	.DB  0x9,0x9,0x1,0x3E,0x41,0x49,0x49,0x7A
0001f5 087f
0001f6 0808
0001f7 007f
0001f8 7f41      	.DB  0x7F,0x8,0x8,0x8,0x7F,0x0,0x41,0x7F
0001f9 0041
0001fa 4020
0001fb 3f41
0001fc 7f01      	.DB  0x41,0x0,0x20,0x40,0x41,0x3F,0x1,0x7F
0001fd 1408
0001fe 4122
0001ff 407f
000200 4040      	.DB  0x8,0x14,0x22,0x41,0x7F,0x40,0x40,0x40
000201 7f40
000202 0c02
000203 7f02
000204 047f      	.DB  0x40,0x7F,0x2,0xC,0x2,0x7F,0x7F,0x4
000205 1008
000206 3e7f
000207 4141
000208 3e41      	.DB  0x8,0x10,0x7F,0x3E,0x41,0x41,0x41,0x3E
000209 097f
00020a 0909
00020b 3e06
00020c 5141      	.DB  0x7F,0x9,0x9,0x9,0x6,0x3E,0x41,0x51
00020d 5e21
00020e 097f
00020f 2919
000210 4646      	.DB  0x21,0x5E,0x7F,0x9,0x19,0x29,0x46,0x46
000211 4949
000212 3149
000213 0101
000214 017f      	.DB  0x49,0x49,0x49,0x31,0x1,0x1,0x7F,0x1
000215 3f01
000216 4040
000217 3f40
000218 201f      	.DB  0x1,0x3F,0x40,0x40,0x40,0x3F,0x1F,0x20
000219 2040
00021a 3f1f
00021b 3840
00021c 3f40      	.DB  0x40,0x20,0x1F,0x3F,0x40,0x38,0x40,0x3F
00021d 1463
00021e 1408
00021f 0763
000220 7008      	.DB  0x63,0x14,0x8,0x14,0x63,0x7,0x8,0x70
000221 0708
000222 5161
000223 4549
000224 0043      	.DB  0x8,0x7,0x61,0x51,0x49,0x45,0x43,0x0
000225 417f
000226 0041
000227 0402
000228 1008      	.DB  0x7F,0x41,0x41,0x0,0x2,0x4,0x8,0x10
000229 0020
00022a 4141
00022b 007f
00022c 0204      	.DB  0x20,0x0,0x41,0x41,0x7F,0x0,0x4,0x2
00022d 0201
00022e 4004
00022f 4040
000230 4040      	.DB  0x1,0x2,0x4,0x40,0x40,0x40,0x40,0x40
000231 0100
000232 0402
000233 2000
000234 5454      	.DB  0x0,0x1,0x2,0x4,0x0,0x20,0x54,0x54
000235 7854
000236 487f
000237 4444
000238 3838      	.DB  0x54,0x78,0x7F,0x48,0x44,0x44,0x38,0x38
000239 4444
00023a 2044
00023b 4438
00023c 4844      	.DB  0x44,0x44,0x44,0x20,0x38,0x44,0x44,0x48
00023d 387f
00023e 5454
00023f 1854
000240 7e08      	.DB  0x7F,0x38,0x54,0x54,0x54,0x18,0x8,0x7E
000241 0109
000242 0c02
000243 5252
000244 3e52      	.DB  0x9,0x1,0x2,0xC,0x52,0x52,0x52,0x3E
000245 087f
000246 0404
000247 0078
000248 7d44      	.DB  0x7F,0x8,0x4,0x4,0x78,0x0,0x44,0x7D
000249 0040
00024a 4020
00024b 3d44
00024c 7f00      	.DB  0x40,0x0,0x20,0x40,0x44,0x3D,0x0,0x7F
00024d 2810
00024e 0044
00024f 4100
000250 407f      	.DB  0x10,0x28,0x44,0x0,0x0,0x41,0x7F,0x40
000251 7c00
000252 1804
000253 7804
000254 087c      	.DB  0x0,0x7C,0x4,0x18,0x4,0x78,0x7C,0x8
000255 0404
000256 3878
000257 4444
000258 3844      	.DB  0x4,0x4,0x78,0x38,0x44,0x44,0x44,0x38
000259 147c
00025a 1414
00025b 0808
00025c 1414      	.DB  0x7C,0x14,0x14,0x14,0x8,0x8,0x14,0x14
00025d 7c18
00025e 087c
00025f 0404
000260 4808      	.DB  0x18,0x7C,0x7C,0x8,0x4,0x4,0x8,0x48
000261 5454
000262 2054
000263 3f04
000264 4044      	.DB  0x54,0x54,0x54,0x20,0x4,0x3F,0x44,0x40
000265 3c20
000266 4040
000267 7c20
000268 201c      	.DB  0x20,0x3C,0x40,0x40,0x20,0x7C,0x1C,0x20
000269 2040
00026a 3c1c
00026b 3040
00026c 3c40      	.DB  0x40,0x20,0x1C,0x3C,0x40,0x30,0x40,0x3C
00026d 2844
00026e 2810
00026f 0c44
000270 5050      	.DB  0x44,0x28,0x10,0x28,0x44,0xC,0x50,0x50
000271 3c50
000272 6444
000273 4c54
000274 0044      	.DB  0x50,0x3C,0x44,0x64,0x54,0x4C,0x44,0x0
000275 3608
000276 0041
000277 0000
000278 007f      	.DB  0x8,0x36,0x41,0x0,0x0,0x0,0x7F,0x0
000279 0000
00027a 3641
00027b 0008
00027c 0810      	.DB  0x0,0x0,0x41,0x36,0x8,0x0,0x10,0x8
00027d 1008
00027e 7808
00027f 4146
000280 7846      	.DB  0x8,0x10,0x8,0x78,0x46,0x41,0x46,0x78
000281 0000
000282 0000
000283 0000
000284 5f00      	.DB  0x0,0x0,0x0,0x0,0x0,0x0,0x0,0x5F
000285 0000
000286 0700
000287 0700
000288 1400      	.DB  0x0,0x0,0x0,0x7,0x0,0x7,0x0,0x14
000289 147f
00028a 147f
00028b 2a24
00028c 2a7f      	.DB  0x7F,0x14,0x7F,0x14,0x24,0x2A,0x7F,0x2A
00028d 2312
00028e 0813
00028f 6264
000290 4936      	.DB  0x12,0x23,0x13,0x8,0x64,0x62,0x36,0x49
000291 2255
000292 0050
000293 0305
000294 0000      	.DB  0x55,0x22,0x50,0x0,0x5,0x3,0x0,0x0
000295 1c00
000296 4122
000297 0000
000298 2241      	.DB  0x0,0x1C,0x22,0x41,0x0,0x0,0x41,0x22
000299 001c
00029a 0814
00029b 083e
00029c 0814      	.DB  0x1C,0x0,0x14,0x8,0x3E,0x8,0x14,0x8
00029d 3e08
00029e 0808
00029f 5000
0002a0 0030      	.DB  0x8,0x3E,0x8,0x8,0x0,0x50,0x30,0x0
0002a1 0800
0002a2 0808
0002a3 0808
0002a4 6000      	.DB  0x0,0x8,0x8,0x8,0x8,0x8,0x0,0x60
0002a5 0060
0002a6 2000
0002a7 0810
0002a8 0204      	.DB  0x60,0x0,0x0,0x20,0x10,0x8,0x4,0x2
0002a9 0000
0002aa 0000
0002ab 0000
0002ac 5f00      	.DB  0x0,0x0,0x0,0x0,0x0,0x0,0x0,0x5F
0002ad 0000
0002ae 0700
0002af 0700
0002b0 1400      	.DB  0x0,0x0,0x0,0x7,0x0,0x7,0x0,0x14
0002b1 147f
0002b2 147f
0002b3 2a24
0002b4 2a7f      	.DB  0x7F,0x14,0x7F,0x14,0x24,0x2A,0x7F,0x2A
0002b5 2312
0002b6 0813
0002b7 6264
0002b8 4936      	.DB  0x12,0x23,0x13,0x8,0x64,0x62,0x36,0x49
0002b9 2255
0002ba 0050
0002bb 0305
0002bc 0000      	.DB  0x55,0x22,0x50,0x0,0x5,0x3,0x0,0x0
0002bd 1c00
0002be 4122
0002bf 0000
0002c0 2241      	.DB  0x0,0x1C,0x22,0x41,0x0,0x0,0x41,0x22
0002c1 001c
0002c2 0814
0002c3 083e
0002c4 0814      	.DB  0x1C,0x0,0x14,0x8,0x3E,0x8,0x14,0x8
0002c5 3e08
0002c6 0808
0002c7 5000
0002c8 0030      	.DB  0x8,0x3E,0x8,0x8,0x0,0x50,0x30,0x0
0002c9 0800
0002ca 0808
0002cb 0808
0002cc 6000      	.DB  0x0,0x8,0x8,0x8,0x8,0x8,0x0,0x60
0002cd 0060
0002ce 2000
0002cf 0810
0002d0 0204      	.DB  0x60,0x0,0x0,0x20,0x10,0x8,0x4,0x2
0002d1 0000
0002d2 0000
0002d3 0000
0002d4 5f00      	.DB  0x0,0x0,0x0,0x0,0x0,0x0,0x0,0x5F
0002d5 0000
0002d6 0700
0002d7 0700
0002d8 1400      	.DB  0x0,0x0,0x0,0x7,0x0,0x7,0x0,0x14
0002d9 147f
0002da 147f
0002db 2a24
0002dc 2a7f      	.DB  0x7F,0x14,0x7F,0x14,0x24,0x2A,0x7F,0x2A
0002dd 2312
0002de 0813
0002df 6264
0002e0 4936      	.DB  0x12,0x23,0x13,0x8,0x64,0x62,0x36,0x49
0002e1 2255
0002e2 0050
0002e3 0305
0002e4 0000      	.DB  0x55,0x22,0x50,0x0,0x5,0x3,0x0,0x0
0002e5 1c00
0002e6 4122
0002e7 0000
0002e8 2241      	.DB  0x0,0x1C,0x22,0x41,0x0,0x0,0x41,0x22
0002e9 001c
0002ea 0814
0002eb 083e
0002ec 0814      	.DB  0x1C,0x0,0x14,0x8,0x3E,0x8,0x14,0x8
0002ed 3e08
0002ee 0808
0002ef 5000
0002f0 0030      	.DB  0x8,0x3E,0x8,0x8,0x0,0x50,0x30,0x0
0002f1 0800
0002f2 0808
0002f3 0808
0002f4 6000      	.DB  0x0,0x8,0x8,0x8,0x8,0x8,0x0,0x60
0002f5 0060
0002f6 2000
0002f7 0810
0002f8 0204      	.DB  0x60,0x0,0x0,0x20,0x10,0x8,0x4,0x2
0002f9 513e
0002fa 4549
0002fb 003e
0002fc 7f42      	.DB  0x3E,0x51,0x49,0x45,0x3E,0x0,0x42,0x7F
0002fd 0040
0002fe 6142
0002ff 4951
000300 2146      	.DB  0x40,0x0,0x42,0x61,0x51,0x49,0x46,0x21
000301 4541
000302 314b
000303 1418
000304 7f12      	.DB  0x41,0x45,0x4B,0x31,0x18,0x14,0x12,0x7F
000305 2710
000306 4545
000307 3945
000308 4a3c      	.DB  0x10,0x27,0x45,0x45,0x45,0x39,0x3C,0x4A
000309 4949
00030a 0130
00030b 0971
00030c 0305      	.DB  0x49,0x49,0x30,0x1,0x71,0x9,0x5,0x3
00030d 4936
00030e 4949
00030f 0636
000310 4949      	.DB  0x36,0x49,0x49,0x49,0x36,0x6,0x49,0x49
000311 1e29
000312 3600
000313 0036
000314 0000      	.DB  0x29,0x1E,0x0,0x36,0x36,0x0,0x0,0x0
000315 3656
000316 0000
000317 1408
000318 4122      	.DB  0x56,0x36,0x0,0x0,0x8,0x14,0x22,0x41
000319 1400
00031a 1414
00031b 1414
00031c 4100      	.DB  0x0,0x14,0x14,0x14,0x14,0x14,0x0,0x41
00031d 1422
00031e 0208
00031f 5101
000320 0609      	.DB  0x22,0x14,0x8,0x2,0x1,0x51,0x9,0x6
000321 117e
000322 1111
000323 7f7e
000324 4949      	.DB  0x7E,0x11,0x11,0x11,0x7E,0x7F,0x49,0x49
000325 3149
000326 497f
000327 4949
000328 7f36      	.DB  0x49,0x31,0x7F,0x49,0x49,0x49,0x36,0x7F
000329 0101
00032a 0301
00032b 2970
00032c 2127      	.DB  0x1,0x1,0x1,0x3,0x70,0x29,0x27,0x21
00032d 7f7f
00032e 4949
00032f 4149
000330 0877      	.DB  0x7F,0x7F,0x49,0x49,0x49,0x41,0x77,0x8
000331 087f
000332 4177
000333 4141
000334 7649      	.DB  0x7F,0x8,0x77,0x41,0x41,0x41,0x49,0x76
000335 107f
000336 0408
000337 7f7f
000338 0910      	.DB  0x7F,0x10,0x8,0x4,0x7F,0x7F,0x10,0x9
000339 7f04
00033a 087f
00033b 2214
00033c 2041      	.DB  0x4,0x7F,0x7F,0x8,0x14,0x22,0x41,0x20
00033d 3f41
00033e 7f01
00033f 027f
000340 020c      	.DB  0x41,0x3F,0x1,0x7F,0x7F,0x2,0xC,0x2
000341 7f7f
000342 0808
000343 7f08
000344 413e      	.DB  0x7F,0x7F,0x8,0x8,0x8,0x7F,0x3E,0x41
000345 4141
000346 7f3e
000347 0101
000348 7f01      	.DB  0x41,0x41,0x3E,0x7F,0x1,0x1,0x1,0x7F
000349 097f
00034a 0909
00034b 3e06
00034c 4141      	.DB  0x7F,0x9,0x9,0x9,0x6,0x3E,0x41,0x41
00034d 2241
00034e 0101
00034f 017f
000350 4701      	.DB  0x41,0x22,0x1,0x1,0x7F,0x1,0x1,0x47
000351 1028
000352 0708
000353 211e
000354 217f      	.DB  0x28,0x10,0x8,0x7,0x1E,0x21,0x7F,0x21
000355 631e
000356 0814
000357 6314
000358 203f      	.DB  0x1E,0x63,0x14,0x8,0x14,0x63,0x3F,0x20
000359 2020
00035a 075f
00035b 0808
00035c 7f08      	.DB  0x20,0x20,0x5F,0x7,0x8,0x8,0x8,0x7F
00035d 407f
00035e 407f
00035f 3f7f
000360 3f20      	.DB  0x7F,0x40,0x7F,0x40,0x7F,0x3F,0x20,0x3F
000361 5f20
000362 7f01
000363 4848
000364 7f30      	.DB  0x20,0x5F,0x1,0x7F,0x48,0x48,0x30,0x7F
000365 3048
000366 7f00
000367 7f00
000368 4848      	.DB  0x48,0x30,0x0,0x7F,0x0,0x7F,0x48,0x48
000369 4130
00036a 4141
00036b 3e49
00036c 087f      	.DB  0x30,0x41,0x41,0x41,0x49,0x3E,0x7F,0x8
00036d 413e
00036e 463e
00036f 1929
000370 7f09      	.DB  0x3E,0x41,0x3E,0x46,0x29,0x19,0x9,0x7F
000371 5420
000372 5454
000373 3c78
000374 4a4a      	.DB  0x20,0x54,0x54,0x54,0x78,0x3C,0x4A,0x4A
000375 3149
000376 547c
000377 2854
000378 7c00      	.DB  0x49,0x31,0x7C,0x54,0x54,0x28,0x0,0x7C
000379 0404
00037a 0c04
00037b 2a72
00037c 2226      	.DB  0x4,0x4,0x4,0xC,0x72,0x2A,0x26,0x22
00037d 387e
00037e 5454
00037f 1854
000380 106c      	.DB  0x7E,0x38,0x54,0x54,0x54,0x18,0x6C,0x10
000381 107c
000382 446c
000383 5444
000384 3854      	.DB  0x7C,0x10,0x6C,0x44,0x44,0x54,0x54,0x38
000385 207c
000386 0810
000387 7c7c
000388 1221      	.DB  0x7C,0x20,0x10,0x8,0x7C,0x7C,0x21,0x12
000389 7c09
00038a 107c
00038b 4428
00038c 2000      	.DB  0x9,0x7C,0x7C,0x10,0x28,0x44,0x0,0x20
00038d 3c44
00038e 7c04
00038f 087c
000390 0810      	.DB  0x44,0x3C,0x4,0x7C,0x7C,0x8,0x10,0x8
000391 7c7c
000392 1010
000393 7c10
000394 4438      	.DB  0x7C,0x7C,0x10,0x10,0x10,0x7C,0x38,0x44
000395 4444
000396 7c38
000397 0404
000398 7c04      	.DB  0x44,0x44,0x38,0x7C,0x4,0x4,0x4,0x7C
000399 147c
00039a 1414
00039b 3808
00039c 4444      	.DB  0x7C,0x14,0x14,0x14,0x8,0x38,0x44,0x44
00039d 2044
00039e 0404
00039f 047c
0003a0 4404      	.DB  0x44,0x20,0x4,0x4,0x7C,0x4,0x4,0x44
0003a1 1028
0003a2 0408
0003a3 1408
0003a4 147e      	.DB  0x28,0x10,0x8,0x4,0x8,0x14,0x7E,0x14
0003a5 4408
0003a6 1028
0003a7 4428
0003a8 403c      	.DB  0x8,0x44,0x28,0x10,0x28,0x44,0x3C,0x40
0003a9 7c40
0003aa 0c40
0003ab 1010
0003ac 7c10      	.DB  0x40,0x7C,0x40,0xC,0x10,0x10,0x10,0x7C
0003ad 407c
0003ae 407c
0003af 3c7c
0003b0 3c20      	.DB  0x7C,0x40,0x7C,0x40,0x7C,0x3C,0x20,0x3C
0003b1 7c20
0003b2 7c04
0003b3 5050
0003b4 7c20      	.DB  0x20,0x7C,0x4,0x7C,0x50,0x50,0x20,0x7C
0003b5 2050
0003b6 7c00
0003b7 7c00
0003b8 5050      	.DB  0x50,0x20,0x0,0x7C,0x0,0x7C,0x50,0x50
0003b9 2820
0003ba 4444
0003bb 3854
0003bc 107c      	.DB  0x20,0x28,0x44,0x44,0x54,0x38,0x7C,0x10
0003bd 4438
0003be 4838
0003bf 3454
0003c0 7c14      	.DB  0x38,0x44,0x38,0x48,0x54,0x34,0x14,0x7C
                 _rad1Image:
0003c1 0000
0003c2 0000
0003c3 0000
0003c4 0000      	.DB  0x0,0x0,0x0,0x0,0x0,0x0,0x0,0x0
0003c5 0000
0003c6 0000
0003c7 c080
0003c8 f0e0      	.DB  0x0,0x0,0x0,0x0,0x80,0xC0,0xE0,0xF0
0003c9 f8f8
0003ca fcfc
0003cb fefe
0003cc ffff      	.DB  0xF8,0xF8,0xFC,0xFC,0xFE,0xFE,0xFF,0xFF
0003cd fcfe
0003ce f0f8
0003cf c0e0
0003d0 0080      	.DB  0xFE,0xFC,0xF8,0xF0,0xE0,0xC0,0x80,0x0
0003d1 0000
0003d2 0000
0003d3 0000
0003d4 0000      	.DB  0x0,0x0,0x0,0x0,0x0,0x0,0x0,0x0
0003d5 0000
0003d6 0000
0003d7 0000
0003d8 0000      	.DB  0x0,0x0,0x0,0x0,0x0,0x0,0x0,0x0
0003d9 0000
0003da 0000
0003db 8000
0003dc e0c0      	.DB  0x0,0x0,0x0,0x0,0x0,0x80,0xC0,0xE0
0003dd f8f0
0003de fefc
0003df ffff
0003e0 fefe      	.DB  0xF0,0xF8,0xFC,0xFE,0xFF,0xFF,0xFE,0xFE
0003e1 fcfe
0003e2 f8f8
0003e3 e0f0
0003e4 80c0      	.DB  0xFE,0xFC,0xF8,0xF8,0xF0,0xE0,0xC0,0x80
0003e5 0000
0003e6 0000
0003e7 0000
0003e8 0000      	.DB  0x0,0x0,0x0,0x0,0x0,0x0,0x0,0x0
0003e9 0000
0003ea 0000
0003eb 0000
0003ec 0000      	.DB  0x0,0x0,0x0,0x0,0x0,0x0,0x0,0x0
0003ed 0000
0003ee 0000
0003ef f8e0
0003f0 fffe      	.DB  0x0,0x0,0x0,0x0,0xE0,0xF8,0xFE,0xFF
0003f1 ffff
0003f2 ffff
0003f3 ffff
0003f4 ffff      	.DB  0xFF,0xFF,0xFF,0xFF,0xFF,0xFF,0xFF,0xFF
0003f5 ffff
0003f6 ffff
0003f7 ffff
0003f8 ffff      	.DB  0xFF,0xFF,0xFF,0xFF,0xFF,0xFF,0xFF,0xFF
0003f9 ffff
0003fa ffff
0003fb fcfe
0003fc f0f8      	.DB  0xFF,0xFF,0xFF,0xFF,0xFE,0xFC,0xF8,0xF0
0003fd 40e0
0003fe 0000
0003ff 0000
000400 0000      	.DB  0xE0,0x40,0x0,0x0,0x0,0x0,0x0,0x0
000401 0000
000402 e040
000403 f8f0
000404 fefc      	.DB  0x0,0x0,0x40,0xE0,0xF0,0xF8,0xFC,0xFE
000405 ffff
000406 ffff
000407 ffff
000408 ffff      	.DB  0xFF,0xFF,0xFF,0xFF,0xFF,0xFF,0xFF,0xFF
000409 ffff
00040a ffff
00040b ffff
00040c ffff      	.DB  0xFF,0xFF,0xFF,0xFF,0xFF,0xFF,0xFF,0xFF
00040d ffff
00040e ffff
00040f feff
000410 e0f8      	.DB  0xFF,0xFF,0xFF,0xFF,0xFF,0xFE,0xF8,0xE0
000411 0000
000412 0000
000413 0000
000414 0000      	.DB  0x0,0x0,0x0,0x0,0x0,0x0,0x0,0x0
000415 0000
000416 0000
000417 0000
000418 7f78      	.DB  0x0,0x0,0x0,0x0,0x0,0x0,0x78,0x7F
000419 7f7f
00041a 7f7f
00041b 7f7f
00041c 7f7f      	.DB  0x7F,0x7F,0x7F,0x7F,0x7F,0x7F,0x7F,0x7F
00041d 7f7f
00041e 7f7f
00041f 7f7f
000420 7f7f      	.DB  0x7F,0x7F,0x7F,0x7F,0x7F,0x7F,0x7F,0x7F
000421 7f7f
000422 7f7f
000423 7f7f
000424 7f7f      	.DB  0x7F,0x7F,0x7F,0x7F,0x7F,0x7F,0x7F,0x7F
000425 030f
000426 f001
000427 fcf8
000428 fefc      	.DB  0xF,0x3,0x1,0xF0,0xF8,0xFC,0xFC,0xFE
000429 fefe
00042a fefe
00042b fcfe
00042c f8fc      	.DB  0xFE,0xFE,0xFE,0xFE,0xFE,0xFC,0xFC,0xF8
00042d 01f0
00042e 0f03
00042f 7f7f
000430 7f7f      	.DB  0xF0,0x1,0x3,0xF,0x7F,0x7F,0x7F,0x7F
000431 7f7f
000432 7f7f
000433 7f7f
000434 7f7f      	.DB  0x7F,0x7F,0x7F,0x7F,0x7F,0x7F,0x7F,0x7F
000435 7f7f
000436 7f7f
000437 7f7f
000438 7f7f      	.DB  0x7F,0x7F,0x7F,0x7F,0x7F,0x7F,0x7F,0x7F
000439 7f7f
00043a 7f7f
00043b 787f
00043c 0000      	.DB  0x7F,0x7F,0x7F,0x7F,0x7F,0x78,0x0,0x0
00043d 0000
00043e 0000
00043f 0000
000440 0000      	.DB  0x0,0x0,0x0,0x0,0x0,0x0,0x0,0x0
000441 0000
000442 0000
000443 0000
000444 0000      	.DB  0x0,0x0,0x0,0x0,0x0,0x0,0x0,0x0
000445 0000
000446 0000
000447 0000
000448 0000      	.DB  0x0,0x0,0x0,0x0,0x0,0x0,0x0,0x0
000449 0000
00044a 0000
00044b 0000
00044c 0000      	.DB  0x0,0x0,0x0,0x0,0x0,0x0,0x0,0x0
00044d 0000
00044e 0000
00044f 8000
000450 e1c0      	.DB  0x0,0x0,0x0,0x0,0x0,0x80,0xC0,0xE1
000451 e7e3
000452 cfc7
000453 8f8f
000454 8f8f      	.DB  0xE3,0xE7,0xC7,0xCF,0x8F,0x8F,0x8F,0x8F
000455 c7cf
000456 e3e7
000457 c0e1
000458 0080      	.DB  0xCF,0xC7,0xE7,0xE3,0xE1,0xC0,0x80,0x0
000459 0000
00045a 0000
00045b 0000
00045c 0000      	.DB  0x0,0x0,0x0,0x0,0x0,0x0,0x0,0x0
00045d 0000
00045e 0000
00045f 0000
000460 0000      	.DB  0x0,0x0,0x0,0x0,0x0,0x0,0x0,0x0
000461 0000
000462 0000
000463 0000
000464 0000      	.DB  0x0,0x0,0x0,0x0,0x0,0x0,0x0,0x0
000465 0000
000466 0000
000467 0000
000468 0000      	.DB  0x0,0x0,0x0,0x0,0x0,0x0,0x0,0x0
000469 0000
00046a 0000
00046b 0000
00046c 0000      	.DB  0x0,0x0,0x0,0x0,0x0,0x0,0x0,0x0
00046d 0000
00046e 0000
00046f 0000
000470 0000      	.DB  0x0,0x0,0x0,0x0,0x0,0x0,0x0,0x0
000471 0000
000472 0000
000473 0000
000474 0000      	.DB  0x0,0x0,0x0,0x0,0x0,0x0,0x0,0x0
000475 8000
000476 e0c0
000477 f8f0
000478 fefc      	.DB  0x0,0x80,0xC0,0xE0,0xF0,0xF8,0xFC,0xFE
000479 ffff
00047a ffff
00047b ffff
00047c ffff      	.DB  0xFF,0xFF,0xFF,0xFF,0xFF,0xFF,0xFF,0xFF
00047d ffff
00047e ffff
00047f ffff
000480 ffff      	.DB  0xFF,0xFF,0xFF,0xFF,0xFF,0xFF,0xFF,0xFF
000481 ffff
000482 ffff
000483 fcfe
000484 f0f8      	.DB  0xFF,0xFF,0xFF,0xFF,0xFE,0xFC,0xF8,0xF0
000485 c0e0
000486 0080
000487 0000
000488 0000      	.DB  0xE0,0xC0,0x80,0x0,0x0,0x0,0x0,0x0
000489 0000
00048a 0000
00048b 0000
00048c 0000      	.DB  0x0,0x0,0x0,0x0,0x0,0x0,0x0,0x0
00048d 0000
00048e 0000
00048f 0000
000490 0000      	.DB  0x0,0x0,0x0,0x0,0x0,0x0,0x0,0x0
000491 0000
000492 0000
000493 0000
000494 0000      	.DB  0x0,0x0,0x0,0x0,0x0,0x0,0x0,0x0
000495 0000
000496 0000
000497 0000
000498 0000      	.DB  0x0,0x0,0x0,0x0,0x0,0x0,0x0,0x0
000499 0000
00049a 0000
00049b 0000
00049c 0000      	.DB  0x0,0x0,0x0,0x0,0x0,0x0,0x0,0x0
00049d 0000
00049e 0e0c
00049f 1f1f
0004a0 3f1f      	.DB  0x0,0x0,0xC,0xE,0x1F,0x1F,0x1F,0x3F
0004a1 3f3f
0004a2 7f3f
0004a3 7f7f
0004a4 ffff      	.DB  0x3F,0x3F,0x3F,0x7F,0x7F,0x7F,0xFF,0xFF
0004a5 ffff
0004a6 ffff
0004a7 ffff
0004a8 ffff      	.DB  0xFF,0xFF,0xFF,0xFF,0xFF,0xFF,0xFF,0xFF
0004a9 ffff
0004aa ffff
0004ab ffff
0004ac 7f7f      	.DB  0xFF,0xFF,0xFF,0xFF,0xFF,0xFF,0x7F,0x7F
0004ad 3f7f
0004ae 3f3f
0004af 1f3f
0004b0 1f1f      	.DB  0x7F,0x3F,0x3F,0x3F,0x3F,0x1F,0x1F,0x1F
0004b1 0c0e
0004b2 0000
0004b3 0000
0004b4 0000      	.DB  0xE,0xC,0x0,0x0,0x0,0x0,0x0,0x0
0004b5 0000
0004b6 0000
0004b7 0000
0004b8 0000      	.DB  0x0,0x0,0x0,0x0,0x0,0x0,0x0,0x0
0004b9 0000
0004ba 0000
0004bb 0000
0004bc 0000      	.DB  0x0,0x0,0x0,0x0,0x0,0x0,0x0,0x0
                 _tbl10_G101:
0004bd 2710
0004be 03e8
0004bf 0064
0004c0 000a      	.DB  0x10,0x27,0xE8,0x3,0x64,0x0,0xA,0x0
0004c1 0001      	.DB  0x1,0x0
                 _tbl16_G101:
0004c2 1000
0004c3 0100
0004c4 0010
0004c5 0001      	.DB  0x0,0x10,0x0,0x1,0x10,0x0,0x1,0x0
                 
                 ;REGISTER BIT VARIABLES INITIALIZATION
                 __REG_BIT_VARS:
0004c6 0000      	.DW  0x0000
                 
                 _0x3:
C:\Users\abc\Dropbox\ADAPTER_CV_PROJ_v7 - current\List\adapter.asm(1447): warning: .cseg .db misalignment - padding zero byte
0004c7 00ff      	.DB  0xFF
                 _0x144:
C:\Users\abc\Dropbox\ADAPTER_CV_PROJ_v7 - current\List\adapter.asm(1449): warning: .cseg .db misalignment - padding zero byte
0004c8 00c8      	.DB  0xC8
                 _0x168:
0004c9 0c0b      	.DB  LOW(_DoNothing),HIGH(_DoNothing)
                 _0x169:
0004ca 0c0b      	.DB  LOW(_DoNothing),HIGH(_DoNothing)
                 _0x16A:
0004cb 0c0b      	.DB  LOW(_DoNothing),HIGH(_DoNothing)
                 _0x248:
0004cc 0303
0004cd 4602
0004ce 0000
0004cf 0000      	.DB  0x3,0x3,0x2,0x46,0x0,0x0,0x0,0x0
0004d0 0000      	.DB  0x0,0x0
                 _0x0:
0004d1 6f70
0004d2 6672
0004d3 0a0d
0004d4 6500      	.DB  0x70,0x6F,0x72,0x66,0xD,0xA,0x0,0x65
0004d5 7478
0004d6 6672
0004d7 0a0d
0004d8 6200      	.DB  0x78,0x74,0x72,0x66,0xD,0xA,0x0,0x62
0004d9 726f
0004da 0d66
0004db 000a
0004dc 6477      	.DB  0x6F,0x72,0x66,0xD,0xA,0x0,0x77,0x64
0004dd 6672
0004de 0a0d
0004df 4a00
0004e0 5254      	.DB  0x72,0x66,0xD,0xA,0x0,0x4A,0x54,0x52
0004e1 0d46
0004e2 000a
0004e3 3c0d
0004e4 4152      	.DB  0x46,0xD,0xA,0x0,0xD,0x3C,0x52,0x41
0004e5 3e4d
0004e6 0d00
0004e7 4155
0004e8 5452      	.DB  0x4D,0x3E,0x0,0xD,0x55,0x41,0x52,0x54
0004e9 535f
0004ea 5445
0004eb 4954
0004ec 474e      	.DB  0x5F,0x53,0x45,0x54,0x54,0x49,0x4E,0x47
0004ed 0d53
0004ee 5500
0004ef 5241
0004f0 2054      	.DB  0x53,0xD,0x0,0x55,0x41,0x52,0x54,0x20
0004f1 0d00
0004f2 4d20
0004f3 646f
0004f4 2065      	.DB  0x0,0xD,0x20,0x4D,0x6F,0x64,0x65,0x20
0004f5 0d00
0004f6 5320
0004f7 6570
0004f8 6465      	.DB  0x0,0xD,0x20,0x53,0x70,0x65,0x65,0x64
0004f9 0020
0004fa 2d0d
0004fb 2d2d
0004fc 2d2d      	.DB  0x20,0x0,0xD,0x2D,0x2D,0x2D,0x2D,0x2D
0004fd 2d2d
0004fe 0d2d
0004ff 0d00
000500 5053      	.DB  0x2D,0x2D,0x2D,0xD,0x0,0xD,0x53,0x50
000501 5f49
000502 4553
000503 5454
000504 4e49      	.DB  0x49,0x5F,0x53,0x45,0x54,0x54,0x49,0x4E
000505 5347
000506 000d
000507 5053
000508 2049      	.DB  0x47,0x53,0xD,0x0,0x53,0x50,0x49,0x20
000509 0d00
00050a 5020
00050b 6572
00050c 6373      	.DB  0x0,0xD,0x20,0x50,0x72,0x65,0x73,0x63
00050d 6c61
00050e 656c
00050f 2072
000510 0d00      	.DB  0x61,0x6C,0x6C,0x65,0x72,0x20,0x0,0xD
000511 453c
000512 5045
000513 4f52
000514 3e4d      	.DB  0x3C,0x45,0x45,0x50,0x52,0x4F,0x4D,0x3E
000515 0d00
000516 7542
000517 6574
000518 5f73      	.DB  0x0,0xD,0x42,0x75,0x74,0x65,0x73,0x5F
000519 5852
00051a 0020
00051b 420d
00051c 7475      	.DB  0x52,0x58,0x20,0x0,0xD,0x42,0x75,0x74
00051d 7365
00051e 545f
00051f 2058
000520 7600      	.DB  0x65,0x73,0x5F,0x54,0x58,0x20,0x0,0x76
000521 6572
000522 3d66
000523 6425
000524 0020      	.DB  0x72,0x65,0x66,0x3D,0x25,0x64,0x20,0x0
000525 3d64
000526 6425
000527 0020
000528 6564      	.DB  0x64,0x3D,0x25,0x64,0x20,0x0,0x64,0x65
000529 746c
00052a 3d61
00052b 6425
00052c 0020      	.DB  0x6C,0x74,0x61,0x3D,0x25,0x64,0x20,0x0
00052d 6f76
00052e 746c
00052f 253d
000530 2064      	.DB  0x76,0x6F,0x6C,0x74,0x3D,0x25,0x64,0x20
000531 7300
000532 4500
C:\Users\abc\Dropbox\ADAPTER_CV_PROJ_v7 - current\List\adapter.asm(1484): warning: .cseg .db misalignment - padding zero byte
000533 0000      	.DB  0x0,0x73,0x0,0x45,0x0
                 _0x2060060:
C:\Users\abc\Dropbox\ADAPTER_CV_PROJ_v7 - current\List\adapter.asm(1486): warning: .cseg .db misalignment - padding zero byte
000534 0001      	.DB  0x1
                 _0x2060000:
000535 4e2d
000536 4e41
000537 4900
000538 464e      	.DB  0x2D,0x4E,0x41,0x4E,0x0,0x49,0x4E,0x46
C:\Users\abc\Dropbox\ADAPTER_CV_PROJ_v7 - current\List\adapter.asm(1489): warning: .cseg .db misalignment - padding zero byte
000539 0000      	.DB  0x0
                 
                 __GLOBAL_INI_TBL:
00053a 0001      	.DW  0x01
00053b 0002      	.DW  0x02
00053c 098c      	.DW  __REG_BIT_VARS*2
                 
00053d 0001      	.DW  0x01
00053e 0e57      	.DW  _d
00053f 0990      	.DW  _0x144*2
                 
000540 0002      	.DW  0x02
000541 0e61      	.DW  _MasterOutFunc
000542 0992      	.DW  _0x168*2
                 
000543 0002      	.DW  0x02
000544 0e63      	.DW  _SlaveOutFunc
000545 0994      	.DW  _0x169*2
                 
000546 0002      	.DW  0x02
000547 0e65      	.DW  _ErrorOutFunc
000548 0996      	.DW  _0x16A*2
                 
000549 0007      	.DW  0x07
00054a 0200      	.DW  _0x1B7
00054b 09c6      	.DW  _0x0*2+36
                 
00054c 0010      	.DW  0x10
00054d 0207      	.DW  _0x1B7+7
00054e 09cd      	.DW  _0x0*2+43
                 
00054f 0006      	.DW  0x06
000550 0217      	.DW  _0x1B7+23
000551 09dd      	.DW  _0x0*2+59
                 
000552 0008      	.DW  0x08
000553 021d      	.DW  _0x1B7+29
000554 09e3      	.DW  _0x0*2+65
                 
000555 0009      	.DW  0x09
000556 0225      	.DW  _0x1B7+37
000557 09eb      	.DW  _0x0*2+73
                 
000558 000b      	.DW  0x0B
000559 022e      	.DW  _0x1B7+46
00055a 09f4      	.DW  _0x0*2+82
                 
00055b 000f      	.DW  0x0F
00055c 0239      	.DW  _0x1B7+57
00055d 09ff      	.DW  _0x0*2+93
                 
00055e 0005      	.DW  0x05
00055f 0248      	.DW  _0x1B7+72
000560 0a0e      	.DW  _0x0*2+108
                 
000561 0008      	.DW  0x08
000562 024d      	.DW  _0x1B7+77
000563 09e3      	.DW  _0x0*2+65
                 
000564 000e      	.DW  0x0E
000565 0255      	.DW  _0x1B7+85
000566 0a13      	.DW  _0x0*2+113
                 
000567 000b      	.DW  0x0B
000568 0263      	.DW  _0x1B7+99
000569 09f4      	.DW  _0x0*2+82
                 
00056a 000a      	.DW  0x0A
00056b 026e      	.DW  _0x1BE
00056c 0a21      	.DW  _0x0*2+127
                 
00056d 0010      	.DW  0x10
00056e 0278      	.DW  _0x1BE+10
00056f 09cd      	.DW  _0x0*2+43
                 
000570 0006      	.DW  0x06
000571 0288      	.DW  _0x1BE+26
000572 09dd      	.DW  _0x0*2+59
                 
000573 0008      	.DW  0x08
000574 028e      	.DW  _0x1BE+32
000575 09e3      	.DW  _0x0*2+65
                 
000576 0009      	.DW  0x09
000577 0296      	.DW  _0x1BE+40
000578 09eb      	.DW  _0x0*2+73
                 
000579 000b      	.DW  0x0B
00057a 029f      	.DW  _0x1BE+49
00057b 09f4      	.DW  _0x0*2+82
                 
00057c 000f      	.DW  0x0F
00057d 02aa      	.DW  _0x1BE+60
00057e 09ff      	.DW  _0x0*2+93
                 
00057f 0005      	.DW  0x05
000580 02b9      	.DW  _0x1BE+75
000581 0a0e      	.DW  _0x0*2+108
                 
000582 0008      	.DW  0x08
000583 02be      	.DW  _0x1BE+80
000584 09e3      	.DW  _0x0*2+65
                 
000585 000e      	.DW  0x0E
000586 02c6      	.DW  _0x1BE+88
000587 0a13      	.DW  _0x0*2+113
                 
000588 000b      	.DW  0x0B
000589 02d4      	.DW  _0x1BE+102
00058a 09f4      	.DW  _0x0*2+82
                 
00058b 000b      	.DW  0x0B
00058c 02df      	.DW  _0x1C5
00058d 0a2b      	.DW  _0x0*2+137
                 
00058e 000b      	.DW  0x0B
00058f 02ea      	.DW  _0x1C5+11
000590 0a36      	.DW  _0x0*2+148
                 
000591 000a      	.DW  0x0A
000592 0004      	.DW  0x04
000593 0998      	.DW  _0x248*2
                 
000594 0001      	.DW  0x01
000595 0eb5      	.DW  __seed_G103
000596 0a68      	.DW  _0x2060060*2
                 
                 _0xFFFFFFFF:
000597 0000      	.DW  0
                 
                 __RESET:
000598 94f8      	CLI
000599 27ee      	CLR  R30
00059a bbec      	OUT  EECR,R30
                 
                 ;INTERRUPT VECTORS ARE PLACED
                 ;AT THE START OF FLASH
00059b e0f1      	LDI  R31,1
00059c bff5      	OUT  MCUCR,R31
00059d bfe5      	OUT  MCUCR,R30
00059e 93e0 006c 	STS  XMCRB,R30
                 
                 ;DISABLE WATCHDOG
0005a0 e1f8      	LDI  R31,0x18
0005a1 bdf1      	OUT  WDTCR,R31
0005a2 bde1      	OUT  WDTCR,R30
                 
                 ;CLEAR R2-R14
0005a3 e08d      	LDI  R24,(14-2)+1
0005a4 e0a2      	LDI  R26,2
0005a5 27bb      	CLR  R27
                 __CLEAR_REG:
0005a6 93ed      	ST   X+,R30
0005a7 958a      	DEC  R24
0005a8 f7e9      	BRNE __CLEAR_REG
                 
                 ;CLEAR SRAM
0005a9 e080      	LDI  R24,LOW(__CLEAR_SRAM_SIZE)
0005aa e190      	LDI  R25,HIGH(__CLEAR_SRAM_SIZE)
0005ab e0a0      	LDI  R26,LOW(__SRAM_START)
0005ac e0b1      	LDI  R27,HIGH(__SRAM_START)
                 __CLEAR_SRAM:
0005ad 93ed      	ST   X+,R30
0005ae 9701      	SBIW R24,1
0005af f7e9      	BRNE __CLEAR_SRAM
                 
                 ;GLOBAL VARIABLES INITIALIZATION
0005b0 e7e4      	LDI  R30,LOW(__GLOBAL_INI_TBL*2)
0005b1 e0fa      	LDI  R31,HIGH(__GLOBAL_INI_TBL*2)
                 __GLOBAL_INI_NEXT:
0005b2 9185      	LPM  R24,Z+
0005b3 9195      	LPM  R25,Z+
0005b4 9700      	SBIW R24,0
0005b5 f061      	BREQ __GLOBAL_INI_END
0005b6 91a5      	LPM  R26,Z+
0005b7 91b5      	LPM  R27,Z+
0005b8 9005      	LPM  R0,Z+
0005b9 9015      	LPM  R1,Z+
0005ba 01bf      	MOVW R22,R30
0005bb 01f0      	MOVW R30,R0
                 __GLOBAL_INI_LOOP:
0005bc 9005      	LPM  R0,Z+
0005bd 920d      	ST   X+,R0
0005be 9701      	SBIW R24,1
0005bf f7e1      	BRNE __GLOBAL_INI_LOOP
0005c0 01fb      	MOVW R30,R22
0005c1 cff0      	RJMP __GLOBAL_INI_NEXT
                 __GLOBAL_INI_END:
                 
0005c2 bf8b      	OUT  RAMPZ,R24
                 
                 ;HARDWARE STACK POINTER INITIALIZATION
0005c3 efef      	LDI  R30,LOW(__SRAM_END-__HEAP_SIZE)
0005c4 bfed      	OUT  SPL,R30
0005c5 e1e0      	LDI  R30,HIGH(__SRAM_END-__HEAP_SIZE)
0005c6 bfee      	OUT  SPH,R30
                 
                 ;DATA STACK POINTER INITIALIZATION
0005c7 e0c0      	LDI  R28,LOW(__SRAM_START+__DSTACK_SIZE)
0005c8 e0d2      	LDI  R29,HIGH(__SRAM_START+__DSTACK_SIZE)
                 
0005c9 940c 117b 	JMP  _main
                 
                 	.ESEG
                 	.ORG 0
                 
                 	.DSEG
                 	.ORG 0x200
                 
                 	.CSEG
                 ;/*****************************************************
                 ;Project : Uni_interface_adapter
                 ;Version :
                 ;Date    : 04.02.2014
                 ;Author  : Vlad
                 ;
                 ;Chip type               : ATmega128
                 ;Program type            : Application
                 ;AVR Core Clock frequency: 16,000000 MHz
                 ;Data Stack size         : 1024
                 ;*****************************************************/
                 ;
                 ;//#define DEBUG
                 ;
                 ;#include <adapter.h>
                 	#ifndef __SLEEP_DEFINED__
                 	#define __SLEEP_DEFINED__
                 	.EQU __se_bit=0x20
                 	.EQU __sm_mask=0x1C
                 	.EQU __sm_powerdown=0x10
                 	.EQU __sm_powersave=0x18
                 	.EQU __sm_standby=0x14
                 	.EQU __sm_ext_standby=0x1C
                 	.EQU __sm_adc_noise_red=0x08
                 	.SET power_ctrl_reg=mcucr
                 	#endif
                 ;#include "D_Globals/global_defines.h"     //Upd-8 in folder
                 ;#include "D_Globals/global_variables.h"   //Upd-8 in folder
                 
                 	.DSEG
                 ;#include "D_usart/usart.h"
                 ;#include "RTOS/EERTOS.h"
                 ;#include "RTOS/EERTOSHAL.h"
                 ;#include "D_Tasks/task_list.h"
                 ;
                 ;#define LogBufSize 512 //   
                 ;
                 ;///////  .
                 ;//       ,  .
                 ;//    UART  
                 ;
                 ;static volatile char WorkLog[LogBufSize];
                 ;static volatile uint16_t LogIndex = 0;
                 ;
                 ;void WorkLogPutChar(unsigned char symbol){
                 ; 0000 000F void WorkLogPutChar(unsigned char symbol){
                 
                 	.CSEG
                 ;__disable_interrupts();
                 ;	symbol -> Y+0
                 ;if (LogIndex <LogBufSize)            //    
                 ;{
                 ;        WorkLog[LogIndex]= symbol;    //    
                 ;        LogIndex++;
                 ;}
                 ; __restore_interrupts();
                 ;}
                 ;
                 ;void Put_In_LogFl (unsigned char __flash* data){
                 ;  while(*data)
                 ;	*data -> Y+0
                 ;  {
                 ;    WorkLogPutChar(*data++);
                 ;  }
                 ;}
                 ;
                 ;void Put_In_Log (unsigned char * data){
                 ;  while(*data)
                 ;	*data -> Y+0
                 ;  {
                 ;    WorkLogPutChar(*data++);
                 ;  }
                 ;}
                 ;
                 ;void LogOut(void)				//  
                 ;{
                 ;StopRTOS();
                 ;WorkLog[LogIndex]= 0xFF;
                 ;LogIndex++;
                 ;USART_SendStr(USART_0, WorkLog);
                 ;RunRTOS();
                 ;
                 ;SetTimerTask(Task_Flush_WorkLog,10);//  
                 ;LogIndex = 0;
                 ;}
                 ;/////////////
                 ;/**********************************************
                 ;****************PCD8544 Driver*****************
                 ;***********************************************
                 ;
                 ;for original NOKIA 3310 & alternative "chinese" version of display
                 ;
                 ;48x84 dots, 6x14 symbols
                 ;
                 ;**********************************************/
                 ;
                 ;//#define china 1		//   -    "" ,  - 
                 ;#define SOFT_SPI 1	//   -   SPI,  - 
                 ;
                 ;#ifndef SOFT_SPI
                 ;unsigned char SPCR_val = 0x50;	// 
                 ;unsigned char SPSR_val = 0x01;  //  
                 ;#endif
                 ;
                 ;//LCD Port & pinout setup. :   ""  (  G  ..)  
                 ;#define LCD_DC_PORT  	PORTA	//  -;    
                 ;#define LCD_DC_DDR 	    DDRA
                 ;#define LCD_DC_PIN 	    0
                 ;
                 ;#define LCD_CPORT 	    PORTA	// Chip-Select;    
                 ;#define LCD_CDDR   	    DDRA
                 ;#define LCD_CPIN    	1
                 ;
                 ;#define LCD_RST_PORT 	PORTA	//  ;    
                 ;#define LCD_RST_DDR   	DDRA
                 ;#define LCD_RST_PIN   	2
                 ;
                 ;#define LCD_MOSI_PORT 	PORTA	//   SPI,      SPI,   
                 ;#define LCD_MOSI_DDR	DDRA
                 ;#define LCD_MOSI_PIN    3
                 ;
                 ;#define LCD_CLK_PORT	PORTA	//  SPI,      SPI,   
                 ;#define LCD_CLK_DDR     DDRA
                 ;#define LCD_CLK_PIN     4
                 ;
                 ;
                 ;
                 ;#ifndef SOFT_SPI
                 ;#define LCD_SS_PORT	    PORTB	// ChipSelect SPI,      SPI    
                 ;#define LCD_SS_DDR     	DDRB
                 ;#define LCD_SS_PIN     	0
                 ;#endif
                 ;
                 ;//***********************************************************
                 ;//        
                 ;//***********************************************************
                 ;
                 ;#pragma used+
                 ;
                 ;unsigned char lcd_buf[15];		//     LCD
                 ;
                 ;bit power_down = 0;			//power-down control: 0 - chip is active, 1 - chip is in PD-mode
                 ;bit addressing = 0;			// : 0 - , 1- 
                 ;//bit instuct_set = 0;			// : 0 - , 1 -  -     
                 ;
                 ;#ifdef china
                 ;bit x_mirror = 0;			//  X: 0 - ., 1 - .
                 ;bit y_mirror = 0;			//  Y: 0 - ., 1 - .
                 ;bit SPI_invert = 0;			//   SPI: 0 - MSB first, 1 - LSB first
                 ;#endif
                 ;
                 ;//unsigned char set_y;			//  , 0..5 -     
                 ;//unsigned char set_x;                 	//  , 0..83 -     
                 ;unsigned char temp_control = 3;  	// , 0..3
                 ;unsigned char bias = 3;                 //, 0..7
                 ;unsigned char Vop = 70;			//  LCD, 0..127 ( )
                 ;unsigned char disp_config = 2;		// : 0 - blank, 1 - all on, 2 - normal, 3 - inverse
                 ;
                 ;#ifdef china
                 ;unsigned char shift = 5;		//0..3F -   ,  
                 ;#endif
                 ;
                 ;#define PIXEL_OFF	0		//   -    
                 ;#define PIXEL_ON	1
                 ;#define PIXEL_XOR	2
                 ;
                 ;#define LCD_X_RES               84	// 
                 ;#define LCD_Y_RES               48
                 ;#define LCD_CACHSIZE          LCD_X_RES*LCD_Y_RES/8
                 ;
                 ;#define Cntr_X_RES              102    	//  -  -  ))
                 ;#define Cntr_Y_RES              64
                 ;#define Cntr_buf_size           Cntr_X_RES*Cntr_Y_RES/8
                 ;
                 ;unsigned char  LcdCache [LCD_CACHSIZE];	//Cache buffer in SRAM 84*48 bits or 504 bytes
                 ;unsigned int   LcdCacheIdx;              	//Cache index
                 ;
                 ;#define LCD_CMD         0
                 ;#define LCD_DATA        1
                 ;
                 ;//***************************************************
                 ;//**************** ******************
                 ;//***************************************************
                 ;void LcdSend (unsigned char data, unsigned char cmd);    			//Sends data to display controller
                 ;void LcdUpdate (void);   							//Copies the LCD cache into the device RAM
                 ;void LcdClear (void);    							//Clears the display
                 ;void LcdInit ( void );								// SPI  
                 ;void LcdContrast (unsigned char contrast); 					//contrast -> Contrast value from 0x00 to 0x7F
                 ;void LcdMode (unsigned char mode); 						// : 0 - blank, 1 - all on, 2 - normal, 3 - inverse
                 ;void LcdPwrMode (void);								//  / 
                 ;void LcdImage (flash unsigned char *imageData);					// 
                 ;void LcdPixel (unsigned char x, unsigned char y, unsigned char mode);     	//Displays a pixel at given absolute (x, y) location, mode -> Off, On or Xor
                 ;void LcdLine (int x1, int y1, int x2, int y2, unsigned char mode);  		//Draws a line between two points on the display
                 ;void LcdCircle(char x, char y, char radius, unsigned char mode);		//      
                 ;void LcdBatt(int x1, int y1, int x2, int y2, unsigned char persent);		//      %
                 ;void LcdGotoXYFont (unsigned char x, unsigned char y);   			//Sets cursor location to xy location. Range: 1,1 .. 14,6
                 ;void clean_lcd_buf (void);							//  
                 ;void LcdChr (int ch);								//Displays a character at current cursor location and increment cursor location
                 ;void LcdString (unsigned char x, unsigned char y);				//Displays a string at current cursor location
                 ;void LcdChrBold (int ch);							//    ,   )
                 ;void LcdStringBold (unsigned char x, unsigned char y);				//    
                 ;void LcdChrBig (int ch);							//    , 
                 ;void LcdStringBig (unsigned char x, unsigned char y);				//  
                 ;//***************************************************
                 ;// UPDATE ##1
                 ;void LcdBar(int x1, int y1, int x2, int y2, unsigned char persent);		//  -     ""
                 ;void LcdBarLine(unsigned char line, unsigned char persent);			//  -   
                 ;void LcdStringInv (unsigned char x, unsigned char y);                           //      (  )
                 ;
                 ;const char table[0x0500] =
                 ;{
                 ;0x00, 0x00, 0x00, 0x00, 0x00,// 00
                 ;0x00, 0x00, 0x5F, 0x00, 0x00,// 01
                 ;0x00, 0x07, 0x00, 0x07, 0x00,// 02
                 ;0x14, 0x7F, 0x14, 0x7F, 0x14,// 03
                 ;0x24, 0x2A, 0x7F, 0x2A, 0x12,// 04
                 ;0x23, 0x13, 0x08, 0x64, 0x62,// 05
                 ;0x36, 0x49, 0x55, 0x22, 0x50,// 06
                 ;0x00, 0x05, 0x03, 0x00, 0x00,// 07
                 ;0x00, 0x1C, 0x22, 0x41, 0x00,// 08
                 ;0x00, 0x41, 0x22, 0x1C, 0x00,// 09
                 ;0x14, 0x08, 0x3E, 0x08, 0x14,// 0A
                 ;0x08, 0x08, 0x3E, 0x08, 0x08,// 0B
                 ;0x00, 0x50, 0x30, 0x00, 0x00,// 0C
                 ;0x08, 0x08, 0x08, 0x08, 0x08,// 0D
                 ;0x00, 0x60, 0x60, 0x00, 0x00,// 0E
                 ;0x20, 0x10, 0x08, 0x04, 0x02,// 0F
                 ;0x00, 0x00, 0x00, 0x00, 0x00,// 10
                 ;0x00, 0x00, 0x5F, 0x00, 0x00,// 11
                 ;0x00, 0x07, 0x00, 0x07, 0x00,// 12
                 ;0x14, 0x7F, 0x14, 0x7F, 0x14,// 13
                 ;0x24, 0x2A, 0x7F, 0x2A, 0x12,// 14
                 ;0x23, 0x13, 0x08, 0x64, 0x62,// 15
                 ;0x36, 0x49, 0x55, 0x22, 0x50,// 16
                 ;0x00, 0x05, 0x03, 0x00, 0x00,// 17
                 ;0x00, 0x1C, 0x22, 0x41, 0x00,// 18
                 ;0x00, 0x41, 0x22, 0x1C, 0x00,// 19
                 ;0x14, 0x08, 0x3E, 0x08, 0x14,// 1A
                 ;0x08, 0x08, 0x3E, 0x08, 0x08,// 1B
                 ;0x00, 0x50, 0x30, 0x00, 0x00,// 1C
                 ;0x08, 0x08, 0x08, 0x08, 0x08,// 1D
                 ;0x00, 0x60, 0x60, 0x00, 0x00,// 1E
                 ;0x20, 0x10, 0x08, 0x04, 0x02,// 1F
                 ;0x00, 0x00, 0x00, 0x00, 0x00,// 20 space
                 ;0x00, 0x00, 0x5F, 0x00, 0x00,// 21 !
                 ;0x00, 0x07, 0x00, 0x07, 0x00,// 22 "
                 ;0x14, 0x7F, 0x14, 0x7F, 0x14,// 23 #
                 ;0x24, 0x2A, 0x7F, 0x2A, 0x12,// 24 $
                 ;0x23, 0x13, 0x08, 0x64, 0x62,// 25 %
                 ;0x36, 0x49, 0x55, 0x22, 0x50,// 26 &
                 ;0x00, 0x05, 0x03, 0x00, 0x00,// 27 '
                 ;0x00, 0x1C, 0x22, 0x41, 0x00,// 28 (
                 ;0x00, 0x41, 0x22, 0x1C, 0x00,// 29 )
                 ;0x14, 0x08, 0x3E, 0x08, 0x14,// 2a *
                 ;0x08, 0x08, 0x3E, 0x08, 0x08,// 2b +
                 ;0x00, 0x50, 0x30, 0x00, 0x00,// 2c ,
                 ;0x08, 0x08, 0x08, 0x08, 0x08,// 2d -
                 ;0x00, 0x60, 0x60, 0x00, 0x00,// 2e .
                 ;0x20, 0x10, 0x08, 0x04, 0x02,// 2f /
                 ;0x3E, 0x51, 0x49, 0x45, 0x3E,// 30 0
                 ;0x00, 0x42, 0x7F, 0x40, 0x00,// 31 1
                 ;0x42, 0x61, 0x51, 0x49, 0x46,// 32 2
                 ;0x21, 0x41, 0x45, 0x4B, 0x31,// 33 3
                 ;0x18, 0x14, 0x12, 0x7F, 0x10,// 34 4
                 ;0x27, 0x45, 0x45, 0x45, 0x39,// 35 5
                 ;0x3C, 0x4A, 0x49, 0x49, 0x30,// 36 6
                 ;0x01, 0x71, 0x09, 0x05, 0x03,// 37 7
                 ;0x36, 0x49, 0x49, 0x49, 0x36,// 38 8
                 ;0x06, 0x49, 0x49, 0x29, 0x1E,// 39 9
                 ;0x00, 0x36, 0x36, 0x00, 0x00,// 3a :
                 ;0x00, 0x56, 0x36, 0x00, 0x00,// 3b ;
                 ;0x08, 0x14, 0x22, 0x41, 0x00,// 3c <
                 ;0x14, 0x14, 0x14, 0x14, 0x14,// 3d =
                 ;0x00, 0x41, 0x22, 0x14, 0x08,// 3e >
                 ;0x02, 0x01, 0x51, 0x09, 0x06,// 3f ?
                 ;0x32, 0x49, 0x79, 0x41, 0x3E,// 40 @
                 ;0x7E, 0x11, 0x11, 0x11, 0x7E,// 41 A
                 ;0x7F, 0x49, 0x49, 0x49, 0x36,// 42 B
                 ;0x3E, 0x41, 0x41, 0x41, 0x22,// 43 C
                 ;0x7F, 0x41, 0x41, 0x22, 0x1C,// 44 D
                 ;0x7F, 0x49, 0x49, 0x49, 0x41,// 45 E
                 ;0x7F, 0x09, 0x09, 0x09, 0x01,// 46 F
                 ;0x3E, 0x41, 0x49, 0x49, 0x7A,// 47 G
                 ;0x7F, 0x08, 0x08, 0x08, 0x7F,// 48 H
                 ;0x00, 0x41, 0x7F, 0x41, 0x00,// 49 I
                 ;0x20, 0x40, 0x41, 0x3F, 0x01,// 4a J
                 ;0x7F, 0x08, 0x14, 0x22, 0x41,// 4b K
                 ;0x7F, 0x40, 0x40, 0x40, 0x40,// 4c L
                 ;0x7F, 0x02, 0x0C, 0x02, 0x7F,// 4d M
                 ;0x7F, 0x04, 0x08, 0x10, 0x7F,// 4e N
                 ;0x3E, 0x41, 0x41, 0x41, 0x3E,// 4f O
                 ;0x7F, 0x09, 0x09, 0x09, 0x06,// 50 P
                 ;0x3E, 0x41, 0x51, 0x21, 0x5E,// 51 Q
                 ;0x7F, 0x09, 0x19, 0x29, 0x46,// 52 R
                 ;0x46, 0x49, 0x49, 0x49, 0x31,// 53 S
                 ;0x01, 0x01, 0x7F, 0x01, 0x01,// 54 T
                 ;0x3F, 0x40, 0x40, 0x40, 0x3F,// 55 U
                 ;0x1F, 0x20, 0x40, 0x20, 0x1F,// 56 V
                 ;0x3F, 0x40, 0x38, 0x40, 0x3F,// 57 W
                 ;0x63, 0x14, 0x08, 0x14, 0x63,// 58 X
                 ;0x07, 0x08, 0x70, 0x08, 0x07,// 59 Y
                 ;0x61, 0x51, 0x49, 0x45, 0x43,// 5a Z
                 ;0x00, 0x7F, 0x41, 0x41, 0x00,// 5b [
                 ;0x02, 0x04, 0x08, 0x10, 0x20,// 5c Yen Currency Sign
                 ;0x00, 0x41, 0x41, 0x7F, 0x00,// 5d ]
                 ;0x04, 0x02, 0x01, 0x02, 0x04,// 5e ^
                 ;0x40, 0x40, 0x40, 0x40, 0x40,// 5f _
                 ;0x00, 0x01, 0x02, 0x04, 0x00,// 60 `
                 ;0x20, 0x54, 0x54, 0x54, 0x78,// 61 a
                 ;0x7F, 0x48, 0x44, 0x44, 0x38,// 62 b
                 ;0x38, 0x44, 0x44, 0x44, 0x20,// 63 c
                 ;0x38, 0x44, 0x44, 0x48, 0x7F,// 64 d
                 ;0x38, 0x54, 0x54, 0x54, 0x18,// 65 e
                 ;0x08, 0x7E, 0x09, 0x01, 0x02,// 66 f
                 ;0x0C, 0x52, 0x52, 0x52, 0x3E,// 67 g
                 ;0x7F, 0x08, 0x04, 0x04, 0x78,// 68 h
                 ;0x00, 0x44, 0x7D, 0x40, 0x00,// 69 i
                 ;0x20, 0x40, 0x44, 0x3D, 0x00,// 6a j
                 ;0x7F, 0x10, 0x28, 0x44, 0x00,// 6b k
                 ;0x00, 0x41, 0x7F, 0x40, 0x00,// 6c l
                 ;0x7C, 0x04, 0x18, 0x04, 0x78,// 6d m
                 ;0x7C, 0x08, 0x04, 0x04, 0x78,// 6e n
                 ;0x38, 0x44, 0x44, 0x44, 0x38,// 6f o
                 ;0x7C, 0x14, 0x14, 0x14, 0x08,// 70 p
                 ;0x08, 0x14, 0x14, 0x18, 0x7C,// 71 q
                 ;0x7C, 0x08, 0x04, 0x04, 0x08,// 72 r
                 ;0x48, 0x54, 0x54, 0x54, 0x20,// 73 s
                 ;0x04, 0x3F, 0x44, 0x40, 0x20,// 74 t
                 ;0x3C, 0x40, 0x40, 0x20, 0x7C,// 75 u
                 ;0x1C, 0x20, 0x40, 0x20, 0x1C,// 76 v
                 ;0x3C, 0x40, 0x30, 0x40, 0x3C,// 77 w
                 ;0x44, 0x28, 0x10, 0x28, 0x44,// 78 x
                 ;0x0C, 0x50, 0x50, 0x50, 0x3C,// 79 y
                 ;0x44, 0x64, 0x54, 0x4C, 0x44,// 7a z
                 ;0x00, 0x08, 0x36, 0x41, 0x00,// 7b <
                 ;0x00, 0x00, 0x7F, 0x00, 0x00,// 7c |
                 ;0x00, 0x41, 0x36, 0x08, 0x00,// 7d >
                 ;0x10, 0x08, 0x08, 0x10, 0x08,// 7e Right Arrow ->
                 ;0x78, 0x46, 0x41, 0x46, 0x78,// 7f Left Arrow <-
                 ;0x00, 0x00, 0x00, 0x00, 0x00,// 80
                 ;0x00, 0x00, 0x5F, 0x00, 0x00,// 81
                 ;0x00, 0x07, 0x00, 0x07, 0x00,// 82
                 ;0x14, 0x7F, 0x14, 0x7F, 0x14,// 83
                 ;0x24, 0x2A, 0x7F, 0x2A, 0x12,// 84
                 ;0x23, 0x13, 0x08, 0x64, 0x62,// 85
                 ;0x36, 0x49, 0x55, 0x22, 0x50,// 86
                 ;0x00, 0x05, 0x03, 0x00, 0x00,// 87
                 ;0x00, 0x1C, 0x22, 0x41, 0x00,// 88
                 ;0x00, 0x41, 0x22, 0x1C, 0x00,// 89
                 ;0x14, 0x08, 0x3E, 0x08, 0x14,// 8A
                 ;0x08, 0x08, 0x3E, 0x08, 0x08,// 8B
                 ;0x00, 0x50, 0x30, 0x00, 0x00,// 8C
                 ;0x08, 0x08, 0x08, 0x08, 0x08,// 8D
                 ;0x00, 0x60, 0x60, 0x00, 0x00,// 8E
                 ;0x20, 0x10, 0x08, 0x04, 0x02,// 8F
                 ;0x00, 0x00, 0x00, 0x00, 0x00,// 90
                 ;0x00, 0x00, 0x5F, 0x00, 0x00,// 91
                 ;0x00, 0x07, 0x00, 0x07, 0x00,// 92
                 ;0x14, 0x7F, 0x14, 0x7F, 0x14,// 93
                 ;0x24, 0x2A, 0x7F, 0x2A, 0x12,// 94
                 ;0x23, 0x13, 0x08, 0x64, 0x62,// 95
                 ;0x36, 0x49, 0x55, 0x22, 0x50,// 96
                 ;0x00, 0x05, 0x03, 0x00, 0x00,// 97
                 ;0x00, 0x1C, 0x22, 0x41, 0x00,// 98
                 ;0x00, 0x41, 0x22, 0x1C, 0x00,// 99
                 ;0x14, 0x08, 0x3E, 0x08, 0x14,// 9A
                 ;0x08, 0x08, 0x3E, 0x08, 0x08,// 9B
                 ;0x00, 0x50, 0x30, 0x00, 0x00,// 9C
                 ;0x08, 0x08, 0x08, 0x08, 0x08,// 9D
                 ;0x00, 0x60, 0x60, 0x00, 0x00,// 9E
                 ;0x20, 0x10, 0x08, 0x04, 0x02,// 9F
                 ;0x00, 0x00, 0x00, 0x00, 0x00,// A0
                 ;0x00, 0x00, 0x5F, 0x00, 0x00,// A1
                 ;0x00, 0x07, 0x00, 0x07, 0x00,// A2
                 ;0x14, 0x7F, 0x14, 0x7F, 0x14,// A3
                 ;0x24, 0x2A, 0x7F, 0x2A, 0x12,// A4
                 ;0x23, 0x13, 0x08, 0x64, 0x62,// A5
                 ;0x36, 0x49, 0x55, 0x22, 0x50,// A6
                 ;0x00, 0x05, 0x03, 0x00, 0x00,// A7
                 ;0x00, 0x1C, 0x22, 0x41, 0x00,// A8
                 ;0x00, 0x41, 0x22, 0x1C, 0x00,// A9
                 ;0x14, 0x08, 0x3E, 0x08, 0x14,// AA
                 ;0x08, 0x08, 0x3E, 0x08, 0x08,// AB
                 ;0x00, 0x50, 0x30, 0x00, 0x00,// AC
                 ;0x08, 0x08, 0x08, 0x08, 0x08,// AD
                 ;0x00, 0x60, 0x60, 0x00, 0x00,// AE
                 ;0x20, 0x10, 0x08, 0x04, 0x02,// AF
                 ;0x3E, 0x51, 0x49, 0x45, 0x3E,// B0
                 ;0x00, 0x42, 0x7F, 0x40, 0x00,// B1
                 ;0x42, 0x61, 0x51, 0x49, 0x46,// B2
                 ;0x21, 0x41, 0x45, 0x4B, 0x31,// B3
                 ;0x18, 0x14, 0x12, 0x7F, 0x10,// B4
                 ;0x27, 0x45, 0x45, 0x45, 0x39,// B5
                 ;0x3C, 0x4A, 0x49, 0x49, 0x30,// B6
                 ;0x01, 0x71, 0x09, 0x05, 0x03,// B7
                 ;0x36, 0x49, 0x49, 0x49, 0x36,// B8
                 ;0x06, 0x49, 0x49, 0x29, 0x1E,// B9
                 ;0x00, 0x36, 0x36, 0x00, 0x00,// BA
                 ;0x00, 0x56, 0x36, 0x00, 0x00,// BB
                 ;0x08, 0x14, 0x22, 0x41, 0x00,// BC
                 ;0x14, 0x14, 0x14, 0x14, 0x14,// BD
                 ;0x00, 0x41, 0x22, 0x14, 0x08,// BE
                 ;0x02, 0x01, 0x51, 0x09, 0x06,// BF
                 ;0x7E, 0x11, 0x11, 0x11, 0x7E,// C0 ?
                 ;0x7F, 0x49, 0x49, 0x49, 0x31,// C1 ?
                 ;0x7F, 0x49, 0x49, 0x49, 0x36,// C2 ?
                 ;0x7F, 0x01, 0x01, 0x01, 0x03,// C3 ?
                 ;0x70, 0x29, 0x27, 0x21, 0x7F,// C4 ?
                 ;0x7F, 0x49, 0x49, 0x49, 0x41,// C5 ?
                 ;0x77, 0x08, 0x7F, 0x08, 0x77,// C6 ?
                 ;0x41, 0x41, 0x41, 0x49, 0x76,// C7 ?
                 ;0x7F, 0x10, 0x08, 0x04, 0x7F,// C8 ?
                 ;0x7F, 0x10, 0x09, 0x04, 0x7F,// C9 ?
                 ;0x7F, 0x08, 0x14, 0x22, 0x41,// CA ?
                 ;0x20, 0x41, 0x3F, 0x01, 0x7F,// CB ?
                 ;0x7F, 0x02, 0x0C, 0x02, 0x7F,// CC ?
                 ;0x7F, 0x08, 0x08, 0x08, 0x7F,// CD ?
                 ;0x3E, 0x41, 0x41, 0x41, 0x3E,// CE ?
                 ;0x7F, 0x01, 0x01, 0x01, 0x7F,// CF ?
                 ;0x7F, 0x09, 0x09, 0x09, 0x06,// D0 ?
                 ;0x3E, 0x41, 0x41, 0x41, 0x22,// D1 ?
                 ;0x01, 0x01, 0x7F, 0x01, 0x01,// D2 ?
                 ;0x47, 0x28, 0x10, 0x08, 0x07,// D3 ?
                 ;0x1E, 0x21, 0x7F, 0x21, 0x1E,// D4 ?
                 ;0x63, 0x14, 0x08, 0x14, 0x63,// D5 ?
                 ;0x3F, 0x20, 0x20, 0x20, 0x5F,// D6 ?
                 ;0x07, 0x08, 0x08, 0x08, 0x7F,// D7 ?
                 ;0x7F, 0x40, 0x7F, 0x40, 0x7F,// D8 ?
                 ;0x3F, 0x20, 0x3F, 0x20, 0x5F,// D9 ?
                 ;0x01, 0x7F, 0x48, 0x48, 0x30,// DA ?
                 ;0x7F, 0x48, 0x30, 0x00, 0x7F,// DB ?
                 ;0x00, 0x7F, 0x48, 0x48, 0x30,// DC ?
                 ;0x41, 0x41, 0x41, 0x49, 0x3E,// DD ?
                 ;0x7F, 0x08, 0x3E, 0x41, 0x3E,// DE ?
                 ;0x46, 0x29, 0x19, 0x09, 0x7F,// DF ?
                 ;0x20, 0x54, 0x54, 0x54, 0x78,// E0 ?
                 ;0x3C, 0x4A, 0x4A, 0x49, 0x31,// E1 ?
                 ;0x7C, 0x54, 0x54, 0x28, 0x00,// E2 ?
                 ;0x7C, 0x04, 0x04, 0x04, 0x0C,// E3 ?
                 ;0x72, 0x2A, 0x26, 0x22, 0x7E,// E4 ?
                 ;0x38, 0x54, 0x54, 0x54, 0x18,// E5 ?
                 ;0x6C, 0x10, 0x7C, 0x10, 0x6C,// E6 ?
                 ;0x44, 0x44, 0x54, 0x54, 0x38,// E7 ?
                 ;0x7C, 0x20, 0x10, 0x08, 0x7C,// E8 ?
                 ;0x7C, 0x21, 0x12, 0x09, 0x7C,// E9 ?
                 ;0x7C, 0x10, 0x28, 0x44, 0x00,// EA ?
                 ;0x20, 0x44, 0x3C, 0x04, 0x7C,// EB ?
                 ;0x7C, 0x08, 0x10, 0x08, 0x7C,// EC ?
                 ;0x7C, 0x10, 0x10, 0x10, 0x7C,// ED ?
                 ;0x38, 0x44, 0x44, 0x44, 0x38,// EE ?
                 ;0x7C, 0x04, 0x04, 0x04, 0x7C,// EF ?
                 ;0x7C, 0x14, 0x14, 0x14, 0x08,// F0 ?
                 ;0x38, 0x44, 0x44, 0x44, 0x20,// F1 ?
                 ;0x04, 0x04, 0x7C, 0x04, 0x04,// F2 ?
                 ;0x44, 0x28, 0x10, 0x08, 0x04,// F3 ?
                 ;0x08, 0x14, 0x7E, 0x14, 0x08,// F4 ?
                 ;0x44, 0x28, 0x10, 0x28, 0x44,// F5 ?
                 ;0x3C, 0x40, 0x40, 0x7C, 0x40,// F6 ?
                 ;0x0C, 0x10, 0x10, 0x10, 0x7C,// F7 ?
                 ;0x7C, 0x40, 0x7C, 0x40, 0x7C,// F8 ?
                 ;0x3C, 0x20, 0x3C, 0x20, 0x7C,// F9 ?
                 ;0x04, 0x7C, 0x50, 0x50, 0x20,// FA ?
                 ;0x7C, 0x50, 0x20, 0x00, 0x7C,// FB ?
                 ;0x00, 0x7C, 0x50, 0x50, 0x20,// FC ?
                 ;0x28, 0x44, 0x44, 0x54, 0x38,// FD ?
                 ;0x7C, 0x10, 0x38, 0x44, 0x38,// FE ?
                 ;0x48, 0x54, 0x34, 0x14, 0x7C }; // FF
                 ;
                 ;void LcdSend (unsigned char data, unsigned char cmd)    //Sends data to display controller
                 ;        {
                 _LcdSend:
                 ;        #ifdef SOFT_SPI
                 ;        unsigned char i, mask = 128;
                 ;        #endif
                 ;
                 ;        LCD_CPORT.LCD_CPIN = 0;                //Enable display controller (active low)
0005cb 931a      	ST   -Y,R17
0005cc 930a      	ST   -Y,R16
                 ;	data -> Y+3
                 ;	cmd -> Y+2
                 ;	i -> R17
                 ;	mask -> R16
0005cd e800      	LDI  R16,128
0005ce 98d9      	CBI  0x1B,1
                 ;         if (cmd) LCD_DC_PORT.LCD_DC_PIN = 1;	//   
0005cf 81ea      	LDD  R30,Y+2
0005d0 30e0      	CPI  R30,0
0005d1 f011      	BREQ _0x10
0005d2 9ad8      	SBI  0x1B,0
                 ;         else LCD_DC_PORT.LCD_DC_PIN = 0;
0005d3 c001      	RJMP _0x13
                 _0x10:
0005d4 98d8      	CBI  0x1B,0
                 ;
                 ;        #ifdef SOFT_SPI
                 ;        for (i=0;i<8;i++)
                 _0x13:
0005d5 e010      	LDI  R17,LOW(0)
                 _0x17:
0005d6 3018      	CPI  R17,8
0005d7 f460      	BRSH _0x18
                 ;          {
                 ;            	if ((data&mask)!=0) LCD_MOSI_PORT.LCD_MOSI_PIN = 1;
0005d8 2fe0      	MOV  R30,R16
0005d9 81ab      	LDD  R26,Y+3
0005da 23ea      	AND  R30,R26
0005db f011      	BREQ _0x19
0005dc 9adb      	SBI  0x1B,3
                 ;                else LCD_MOSI_PORT.LCD_MOSI_PIN = 0;
0005dd c001      	RJMP _0x1C
                 _0x19:
0005de 98db      	CBI  0x1B,3
                 ;        	mask = mask/2;
                 _0x1C:
0005df 9506      	LSR  R16
                 ;        	LCD_CLK_PORT.LCD_CLK_PIN = 1;
0005e0 9adc      	SBI  0x1B,4
                 ;            LCD_CLK_PORT.LCD_CLK_PIN = 0;
0005e1 98dc      	CBI  0x1B,4
                 ;          }
0005e2 5f1f      	SUBI R17,-1
0005e3 cff2      	RJMP _0x17
                 _0x18:
                 ;        #endif
                 ;
                 ;        #ifndef SOFT_SPI
                 ;        SPDR = data;                            //Send data to display controller
                 ;        while ( (SPSR & 0x80) != 0x80 );        //Wait until Tx register empty
                 ;        #endif
                 ;
                 ;        LCD_CPORT.LCD_CPIN = 1;                //Disable display controller
0005e4 9ad9      	SBI  0x1B,1
                 ;        }
0005e5 c2ed      	RJMP _0x20C000A
                 ;
                 ;void LcdUpdate (void)   //Copies the LCD cache into the device RAM
                 ;        {
                 _LcdUpdate:
                 ;        int i;
                 ;	#ifdef china
                 ;	char j;
                 ;	#endif
                 ;
                 ;        LcdSend(0x80, LCD_CMD);		//      0,0
0005e6 931a      	ST   -Y,R17
0005e7 930a      	ST   -Y,R16
                 ;	i -> R16,R17
0005e8 e8e0      	LDI  R30,LOW(128)
0005e9 940e 12d1 	CALL SUBOPT_0x0
                 ;        LcdSend(0x40, LCD_CMD);
0005eb e4e0      	LDI  R30,LOW(64)
0005ec 940e 12d1 	CALL SUBOPT_0x0
                 ;
                 ;    #ifdef china                    		//   -   
                 ;		for (j = Cntr_X_RES; j>0; j--) LcdSend(0, LCD_DATA);
                 ;	#endif
                 ;
                 ;        for (i = 0; i < LCD_CACHSIZE; i++)		// 
                +
0005ee e000     +LDI R16 , LOW ( 0 )
0005ef e010     +LDI R17 , HIGH ( 0 )
                 	__GETWRN 16,17,0
                 _0x26:
                +
0005f0 3f08     +CPI R16 , LOW ( 504 )
0005f1 e0e1     +LDI R30 , HIGH ( 504 )
0005f2 071e     +CPC R17 , R30
                 	__CPWRN 16,17,504
0005f3 f464      	BRGE _0x27
                 ;                {
                 ;                LcdSend(LcdCache[i], LCD_DATA);
0005f4 e2a9      	LDI  R26,LOW(_LcdCache)
0005f5 e0b5      	LDI  R27,HIGH(_LcdCache)
0005f6 0fa0      	ADD  R26,R16
0005f7 1fb1      	ADC  R27,R17
0005f8 91ec      	LD   R30,X
0005f9 93ea      	ST   -Y,R30
0005fa e0e1      	LDI  R30,LOW(1)
0005fb 93ea      	ST   -Y,R30
0005fc dfce      	RCALL _LcdSend
                 ;		#ifdef china				//   -       
                 ;		if (++j == LCD_X_RES)
                 ;			{
                 ;			for (j = (Cntr_X_RES-LCD_X_RES); j>0; j--) LcdSend(0, LCD_DATA);
                 ;			j=0;
                 ;			}
                 ;		#endif
                 ;                }
                +
0005fd 5f0f     +SUBI R16 , LOW ( - 1 )
0005fe 4f1f     +SBCI R17 , HIGH ( - 1 )
                 	__ADDWRN 16,17,1
0005ff cff0      	RJMP _0x26
                 _0x27:
                 ;        }
000600 c012      	RJMP _0x20C000C
                 ;
                 ;void LcdClear (void)    //Clears the display
                 ;{
                 _LcdClear:
                 ;        int i;
                 ;	for (i = 0; i < LCD_CACHSIZE; i++) LcdCache[i] = 0;	//   0
000601 931a      	ST   -Y,R17
000602 930a      	ST   -Y,R16
                 ;	i -> R16,R17
                +
000603 e000     +LDI R16 , LOW ( 0 )
000604 e010     +LDI R17 , HIGH ( 0 )
                 	__GETWRN 16,17,0
                 _0x29:
                +
000605 3f08     +CPI R16 , LOW ( 504 )
000606 e0e1     +LDI R30 , HIGH ( 504 )
000607 071e     +CPC R17 , R30
                 	__CPWRN 16,17,504
000608 f44c      	BRGE _0x2A
000609 e2a9      	LDI  R26,LOW(_LcdCache)
00060a e0b5      	LDI  R27,HIGH(_LcdCache)
00060b 0fa0      	ADD  R26,R16
00060c 1fb1      	ADC  R27,R17
00060d e0e0      	LDI  R30,LOW(0)
00060e 93ec      	ST   X,R30
                +
00060f 5f0f     +SUBI R16 , LOW ( - 1 )
000610 4f1f     +SBCI R17 , HIGH ( - 1 )
                 	__ADDWRN 16,17,1
000611 cff3      	RJMP _0x29
                 _0x2A:
000612 dfd3      	RCALL _LcdUpdate
                 ;}
                 _0x20C000C:
000613 9109      	LD   R16,Y+
000614 9119      	LD   R17,Y+
000615 9508      	RET
                 ;
                 ;/*     or
                 ;void lcd_clear(void) // Clears the display   //Upd - 7
                 ;{
                 ;	lcdCacheIdx = 0;
                 ;	lcd_base_addr(lcdCacheIdx);
                 ;    // Set the entire cache to zero and write 0s to lcd
                 ;    for(int i=0;i<LCD_CACHE_SIZE;i++) {
                 ;		lcd_send(0, LCD_DATA);
                 ;    }
                 ;}
                 ;*/
                 ;
                 ;void LcdInit ( void )	// SPI  
                 ;        {
                 _LcdInit:
                 ;        LCD_RST_PORT.LCD_RST_PIN = 1;       //  /
000616 9ada      	SBI  0x1B,2
                 ;        LCD_RST_DDR.LCD_RST_PIN = LCD_DC_DDR.LCD_DC_PIN = LCD_CDDR.LCD_CPIN = LCD_MOSI_DDR.LCD_MOSI_PIN = LCD_CLK_DDR.LCD_CLK_PIN = 1;
000617 9ad4      	SBI  0x1A,4
000618 9ad3      	SBI  0x1A,3
000619 9ad1      	SBI  0x1A,1
00061a 9ad0      	SBI  0x1A,0
00061b 9ad2      	SBI  0x1A,2
                 ;        LCD_CLK_PORT.LCD_CLK_PIN = 0;
00061c 98dc      	CBI  0x1B,4
                 ;        	#ifndef SOFT_SPI
                 ;        LCD_SS_DDR.LCD_SS_PIN = 1;
                 ;        LCD_SS_PORT.LCD_SS_PIN = 0;
                 ;        	#endif
                 ;        delay_ms(1);
00061d e0e1      	LDI  R30,LOW(1)
00061e e0f0      	LDI  R31,HIGH(1)
00061f 940e 12d6 	CALL SUBOPT_0x1
                 ;        	#ifndef SOFT_SPI
                 ;        //SPCR = SPCR_val;
                 ;        //SPSR = SPSR_val;
                 ;        	#endif
                 ;        LCD_RST_PORT.LCD_RST_PIN = 0;       // 
000621 98da      	CBI  0x1B,2
                 ;        delay_ms(20);
000622 e1e4      	LDI  R30,LOW(20)
000623 e0f0      	LDI  R31,HIGH(20)
000624 940e 12d6 	CALL SUBOPT_0x1
                 ;        LCD_RST_PORT.LCD_RST_PIN = 1;
000626 9ada      	SBI  0x1B,2
                 ;
                 ;        LCD_CPORT.LCD_CPIN = 1;        //Disable LCD controller
000627 9ad9      	SBI  0x1B,1
                 ;
                 ;/*
                 ;    LCD_PORT |= LCD_SCE_PIN;    // Disable LCD controller
                 ;    lcd_send(0x21, LCD_CMD);  // LCD Extended Commands
                 ;    lcd_send(0xC8, LCD_CMD);  // Set LCD Vop(Contrast)
                 ;    lcd_send(0x06, LCD_CMD);  // Set Temp coefficent
                 ;    lcd_send(0x13, LCD_CMD);  // LCD bias mode 1:48
                 ;    lcd_send(0x20, LCD_CMD);  // Standard Commands, Horizontal addressing
                 ;    lcd_send(0x0C, LCD_CMD);  // LCD in normal mode
                 ;*/
                 ;        LcdSend( 0b00100001, LCD_CMD ); 				//LCD Extended Commands
000628 e2e1      	LDI  R30,LOW(33)
000629 940e 12d1 	CALL SUBOPT_0x0
                 ;        LcdSend( 0b00000100+temp_control, LCD_CMD ); 	//Set Temp coefficent   //!  128 - 
00062b 2de5      	MOV  R30,R5
00062c 5fec      	SUBI R30,-LOW(4)
00062d 940e 12d1 	CALL SUBOPT_0x0
                 ;#ifdef china
                 ;        LcdSend( 0b00001000|SPI_invert<<3, LCD_CMD ); 	//   SPI
                 ;#endif
                 ;        LcdSend( 0b00010000+bias, LCD_CMD ); 			//LCD bias mode 1:48
00062f 2de4      	MOV  R30,R4
000630 5fe0      	SUBI R30,-LOW(16)
000631 940e 12d1 	CALL SUBOPT_0x0
                 ;#ifdef china
                 ;        LcdSend( 0b01000000+shift, LCD_CMD ); 			//   ,   
                 ;#endif
                 ;	    LcdSend( 0b10000000+Vop, LCD_CMD ); 			//Set LCD Vop (Contrast)
000633 2de7      	MOV  R30,R7
000634 58e0      	SUBI R30,-LOW(128)
000635 940e 12d1 	CALL SUBOPT_0x0
                 ;#ifdef china
                 ;	    LcdSend( 0x20|x_mirror<<5|y_mirror<<4|power_down<<3, LCD_CMD );			//LCD Standard Commands
                 ;#endif
                 ;#ifndef china
                 ;        LcdSend( 0x20|power_down<<3|addressing<<2, LCD_CMD );				//LCD Standard Commands
000637 e0a0      	LDI  R26,0
000638 fc20      	SBRC R2,0
000639 e0a1      	LDI  R26,1
00063a 2fea      	MOV  R30,R26
00063b 0fee      	LSL  R30
00063c 0fee      	LSL  R30
00063d 0fee      	LSL  R30
00063e 62e0      	ORI  R30,0x20
00063f 2e0e      	MOV  R0,R30
000640 e0a0      	LDI  R26,0
000641 fc21      	SBRC R2,1
000642 e0a1      	LDI  R26,1
000643 2fea      	MOV  R30,R26
000644 0fee      	LSL  R30
000645 0fee      	LSL  R30
000646 29e0      	OR   R30,R0
000647 940e 12d1 	CALL SUBOPT_0x0
                 ;#endif
                 ;        LcdSend( 0b00001000|((disp_config<<1|disp_config)&0b00000101), LCD_CMD ); 	//LCD mode
000649 2de6      	MOV  R30,R6
00064a 0fee      	LSL  R30
00064b 29e6      	OR   R30,R6
00064c 70e5      	ANDI R30,LOW(0x5)
00064d 60e8      	ORI  R30,8
00064e 940e 12d1 	CALL SUBOPT_0x0
                 ;        LcdClear();
000650 dfb0      	RCALL _LcdClear
                 ;        }
000651 9508      	RET
                 ;
                 ;void LcdContrast (unsigned char contrast) 	//contrast -> Contrast value from 0x00 to 0x7F
                 ;        {
                 ;        if (contrast > 0x7F) return;
                 ;	contrast -> Y+0
                 ;        LcdSend( 0x21, LCD_CMD );               //LCD Extended Commands
                 ;        LcdSend( 0x80 | contrast, LCD_CMD );    //Set LCD Vop (Contrast)
                 ;        LcdSend( 0x20, LCD_CMD );               //LCD Standard Commands,Horizontal addressing mode
                 ;        }
                 ;
                 ;void LcdMode (unsigned char mode) 		// : 0 - blank, 1 - all on, 2 - normal, 3 - inverse
                 ;        {
                 ;        if (mode > 3) return;
                 ;	mode -> Y+0
                 ;        LcdSend( 0b00001000|((mode<<1|mode)&0b00000101), LCD_CMD ); 	//LCD mode
                 ;        }
                 ;
                 ; void LcdPwrMode (void) 				//  / 
                 ;        {
                 ;        power_down = ~power_down;
                 ;        LcdSend( 0x20|power_down<<3, LCD_CMD );
                 ;        }
                 ;/*
                 ;void LcdPwrMode (void) 				//  / 
                 ;        {
                 ;        power_down = ~power_down;
                 ;        	#ifdef china
                 ;	LcdSend( 0x20|x_mirror<<4|y_mirror<<3|power_down<<2|addressing<<1, LCD_CMD );			//LCD Standard Commands
                 ;        	#elif
                 ;        LcdSend( 0x20|0<<2|addressing<<1, LCD_CMD );
                 ;                #endif
                 ;        }
                 ;
                 ;void Lcd_off (void) 				// 
                 ;        {
                 ;        	#ifdef china
                 ;	LcdSend( 0x20|x_mirror<<4|y_mirror<<3|1<<2|addressing<<1, LCD_CMD );			//LCD Standard Commands
                 ;        	#elif
                 ;        LcdSend( 0x20|1<<2|addressing<<1, LCD_CMD );
                 ;                #endif
                 ;        }
                 ;
                 ;void Lcd_on (void) 				// 
                 ;        {
                 ;        	#ifdef china
                 ;	LcdSend( 0x20|x_mirror<<4|y_mirror<<3|0<<2|addressing<<1, LCD_CMD );			//LCD Standard Commands
                 ;        	#elif
                 ;        LcdSend( 0x20|0<<2|addressing<<1, LCD_CMD );
                 ;                #endif
                 ;        }   */
                 ;
                 ;
                 ;
                 ;void LcdImage (flash unsigned char *imageData)	// 
                 ;        {
                 ;        unsigned int i;
                 ;
                 ;        LcdSend(0x80, LCD_CMD);		//   0,0
                 ;	*imageData -> Y+2
                 ;	i -> R16,R17
                 ;        LcdSend(0x40, LCD_CMD);
                 ;        for (i = 0; i < LCD_CACHSIZE; i++) LcdCache[i] = imageData[i];	// 
                 ;
                 ;void LcdPixel (unsigned char x, unsigned char y, unsigned char mode)     //Displays a pixel at given absolute (x, y) location, mode -> Off, On or Xor
                 ;        {
                 ;        int index;
                 ;        unsigned char offset, data;
                 ;
                 ;        if ( x > LCD_X_RES ) return;	//     - 
                 ;	x -> Y+6
                 ;	y -> Y+5
                 ;	mode -> Y+4
                 ;	index -> R16,R17
                 ;	offset -> R19
                 ;	data -> R18
                 ;        if ( y > LCD_Y_RES ) return;
                 ;
                 ;        index = (((int)(y)/8)*84)+x;    //      
                 ;        offset  = y-((y/8)*8);          //     
                 ;
                 ;        data = LcdCache[index];         //    
                 ;
                 ;        if ( mode == PIXEL_OFF ) data &= ( ~( 0x01 << offset ) );	//    
                 ;                else if ( mode == PIXEL_ON ) data |= ( 0x01 << offset );
                 ;                        else if ( mode  == PIXEL_XOR ) data ^= ( 0x01 << offset );
                 ;
                 ;        LcdCache[index] = data;		//  
                 ;        }
                 ;
                 ;void LcdLine (int x1, int y1, int x2, int y2, unsigned char mode)  	//Draws a line between two points on the display -  
                 ;        {
                 ;        signed int dy = 0;
                 ;        signed int dx = 0;
                 ;        signed int stepx = 0;
                 ;        signed int stepy = 0;
                 ;        signed int fraction = 0;
                 ;
                 ;        if (x1>LCD_X_RES || x2>LCD_X_RES || y1>LCD_Y_RES || y2>LCD_Y_RES) return;
                 ;	x1 -> Y+17
                 ;	y1 -> Y+15
                 ;	x2 -> Y+13
                 ;	y2 -> Y+11
                 ;	mode -> Y+10
                 ;	dy -> R16,R17
                 ;	dx -> R18,R19
                 ;	stepx -> R20,R21
                 ;	stepy -> Y+8
                 ;	fraction -> Y+6
                 ;
                 ;        dy = y2 - y1;
                 ;        dx = x2 - x1;
                 ;        if (dy < 0)
                 ;                {
                 ;                dy = -dy;
                 ;                stepy = -1;
                 ;                }
                 ;                else stepy = 1;
                 ;        if (dx < 0)
                 ;                {
                 ;                dx = -dx;
                 ;                stepx = -1;
                 ;                }
                 ;                else stepx = 1;
                 ;        dy <<= 1;
                 ;        dx <<= 1;
                 ;        LcdPixel(x1,y1,mode);
                 ;        if (dx > dy)
                 ;                {
                 ;                fraction = dy - (dx >> 1);
                 ;                while (x1 != x2)
                 ;                        {
                 ;                        if (fraction >= 0)
                 ;                                {
                 ;                                y1 += stepy;
                 ;                                fraction -= dx;
                 ;                                }
                 ;                        x1 += stepx;
                 ;                        fraction += dy;
                 ;                        LcdPixel(x1,y1,mode);
                 ;                        }
                 ;                }
                 ;                else
                 ;                        {
                 ;                        fraction = dx - (dy >> 1);
                 ;                        while (y1 != y2)
                 ;                                {
                 ;                                if (fraction >= 0)
                 ;                                        {
                 ;                                        x1 += stepx;
                 ;                                        fraction -= dy;
                 ;                                        }
                 ;                                y1 += stepy;
                 ;                                fraction += dx;
                 ;                                LcdPixel(x1,y1,mode);
                 ;                                }
                 ;                        }
                 ;        }
                 ;
                 ;#warning Upd-7 not tested!
                 ;// Set the base address of the lcd
                 ;void lcd_base_addr(unsigned int addr) {   //Upd-7
                 ;	LcdSend(0x80 |(addr % LCD_X_RES), LCD_CMD);
                 ;	addr -> Y+0
                 ;	LcdSend(0x40 |(addr / LCD_X_RES), LCD_CMD);
                 ;}
                 ;
                 ;/* Clears an area on a line */    //Upd-7
                 ;/*
                 ;void lcd_clear_area(unsigned char line, unsigned char startX, unsigned char endX)
                 ;{
                 ;    // Start and end positions of line
                 ;    int start = (line-1)*84+(startX-1);
                 ;    int end = (line-1)*84+(endX-1);
                 ;
                 ;	lcd_base_addr(start);
                 ;
                 ;    // Clear all data in range from cache
                 ;    for(uint16_t i=start;i<end;i++) {
                 ;       LcdSend(0, LCD_DATA);
                 ;    }
                 ;}
                 ;*/
                 ;
                 ;void LcdCircle(char x, char y, char radius, unsigned char mode)		//      -  
                 ;        {
                 ;        signed char xc = 0;
                 ;        signed char yc = 0;
                 ;        signed char p = 0;
                 ;
                 ;        if (x>LCD_X_RES || y>LCD_Y_RES) return;
                 ;	x -> Y+7
                 ;	y -> Y+6
                 ;	radius -> Y+5
                 ;	mode -> Y+4
                 ;	xc -> R17
                 ;	yc -> R16
                 ;	p -> R19
                 ;
                 ;        yc=radius;
                 ;        p = 3 - (radius<<1);
                 ;        while (xc <= yc)
                 ;                {
                 ;                LcdPixel(x + xc, y + yc, mode);
                 ;                LcdPixel(x + xc, y - yc, mode);
                 ;                LcdPixel(x - xc, y + yc, mode);
                 ;                LcdPixel(x - xc, y - yc, mode);
                 ;                LcdPixel(x + yc, y + xc, mode);
                 ;                LcdPixel(x + yc, y - xc, mode);
                 ;                LcdPixel(x - yc, y + xc, mode);
                 ;                LcdPixel(x - yc, y - xc, mode);
                 ;                if (p < 0) p += (xc++ << 2) + 6;
                 ;                        else p += ((xc++ - yc--)<<2) + 10;
                 ;                }
                 ;        }
                 ;
                 ;void LcdBatt(int x1, int y1, int x2, int y2, unsigned char persent)	//     %
                 ;        {
                 ;        unsigned char horizon_line,horizon_line2,i;
                 ;        if(persent>100)return;
                 ;	x1 -> Y+11
                 ;	y1 -> Y+9
                 ;	x2 -> Y+7
                 ;	y2 -> Y+5
                 ;	persent -> Y+4
                 ;	horizon_line -> R17
                 ;	horizon_line2 -> R16
                 ;	i -> R19
                 ;        LcdLine(x1,y2,x2,y2,1);  //down
                 ;        LcdLine(x2,y1,x2,y2,1);  //right
                 ;	LcdLine(x1,y1,x1,y2,1);  //left
                 ;	LcdLine(x1,y1,x2,y1,1);  //up
                 ;	LcdLine(x1+7,y1-1,x2-7,y1-1,1);
                 ;	LcdLine(x1+7,y1-2,x2-7,y1-2,1);
                 ;
                 ;        horizon_line=persent*(y2-y1-3)/100;
                 ;        for(i=0;i<horizon_line;i++) LcdLine(x1+2,y2-2-i,x2-2,y2-2-i,1);
                 ;        for(i=horizon_line2;i>horizon_line;i--) LcdLine(x1+2,y2-2-i,x2-2,y2-2-i,0);
                 ;
                 ;void LcdBar(int x1, int y1, int x2, int y2, unsigned char persent)	// -
                 ;        {
                 ;        unsigned char line;
                 ;        if(persent>100)return;
                 ;	x1 -> Y+8
                 ;	y1 -> Y+6
                 ;	x2 -> Y+4
                 ;	y2 -> Y+2
                 ;	persent -> Y+1
                 ;	line -> R17
                 ;        LcdLine(x1+2,y2,x2-2,y2,1);  //down
                 ;        LcdLine(x2-2,y1,x2-2,y2,1);  //right
                 ;	LcdLine(x1+2,y1,x1+2,y2,1);  //left
                 ;	LcdLine(x1+2,y1,x2-2,y1,1);  //up
                 ;
                 ;        LcdLine(x2-1,y1+1,x2-1,y2-1,1);  //right
                 ;	LcdLine(x1+1,y1+1,x1+1,y2-1,1);  //left
                 ;
                 ;        LcdLine(x2,y1+2,x2,y2-2,1);  //right
                 ;	LcdLine(x1,y1+2,x1,y2-2,1);  //left
                 ;
                 ;        line=persent*(x2-x1-7)/100-1;
                 ;        LcdLine(x1+4,y1+2,x2-4,y2-2,0);
                 ;        LcdLine(x1+4,y1+2,x1+4+line,y2-2,1);
                 ;	}
                 ;
                 ;void LcdBarLine(unsigned char line, unsigned char persent)	// -
                 ;        {
                 ;        LcdBar(0, (line-1)*7+1, 83, (line-1)*7+5, persent);
                 ;	line -> Y+1
                 ;	persent -> Y+0
                 ;        }
                 ;
                 ;void LcdGotoXYFont (unsigned char x, unsigned char y)   //Sets cursor location to xy location. Range: 1,1 .. 14,6
                 ;        {
                 ;        if (x <= 14 && y <= 6) LcdCacheIdx = ( (int)(y) - 1 ) * 84 + ( (int)(x) - 1 ) * 6;
                 ;	x -> Y+1
                 ;	y -> Y+0
                 ;        }
                 ;
                 ;void clean_lcd_buf (void)	//  
                 ;	{
                 ;	char i;
                 ;
                 ;	for (i=0; i<14; i++) lcd_buf[i] = 0;
                 ;	i -> R17
                 ;
                 ;void LcdChr (int ch)	//Displays a character at current cursor location and increment cursor location
                 ; 	{
                 ;     	unsigned char i;
                 ;
                 ;        for ( i = 0; i < 5; i++ ) LcdCache[LcdCacheIdx++] = table[(ch*5+i)];	// -       - 5 
                 ;	ch -> Y+1
                 ;	i -> R17
                 ; 	}
                 ;
                 ;void LcdChrInv (int ch)	//Displays a character at current cursor location and increment cursor location
                 ; 	{
                 ;     	unsigned char i;
                 ;
                 ;        for ( i = 0; i < 5; i++ ) LcdCache[LcdCacheIdx++] = ~(table[(ch*5+i)]);	// -       - 5 
                 ;	ch -> Y+1
                 ;	i -> R17
                 ; 	}
                 ;
                 ;void LcdString (unsigned char x, unsigned char y)	//Displays a string at current cursor location
                 ;	{
                 ;	unsigned char i;
                 ;
                 ;	if (x > 14 || y > 6) return;
                 ;	x -> Y+2
                 ;	y -> Y+1
                 ;	i -> R17
                 ;	LcdGotoXYFont (x, y);
                 ;	for ( i = 0; i < 15-x; i++ ) if (lcd_buf[i]) LcdChr (lcd_buf[i]);
                 ;	clean_lcd_buf();
                 ;	}
                 ;
                 ;void LcdStringInv (unsigned char x, unsigned char y)	//Displays a string at current cursor location
                 ;	{
                 ;	unsigned char i;
                 ;
                 ;	if (x > 14 || y > 6) return;
                 ;	x -> Y+2
                 ;	y -> Y+1
                 ;	i -> R17
                 ;	LcdGotoXYFont (x, y);
                 ;	for ( i = 0; i < 15-x; i++ ) if (lcd_buf[i]) LcdChrInv (lcd_buf[i]);
                 ;	clean_lcd_buf();
                 ;	}
                 ;
                 ;void LcdChrBold (int ch)	//Displays a bold character at current cursor location and increment cursor location
                 ; 	{
                 ;     	unsigned char i;
                 ;     	unsigned char a = 0, b = 0, c = 0;
                 ;
                 ;     	for ( i = 0; i < 5; i++ )
                 ;	ch -> Y+4
                 ;	i -> R17
                 ;	a -> R16
                 ;	b -> R19
                 ;	c -> R18
                 ;     	        {
                 ;     	        c = table[(ch*5+i)];		//   
                 ;
                 ;     	        b =  (c & 0x01) * 3;            //""    
                 ;              	b |= (c & 0x02) * 6;
                 ;              	b |= (c & 0x04) * 12;
                 ;              	b |= (c & 0x08) * 24;
                 ;
                 ;              	c >>= 4;
                 ;              	a =  (c & 0x01) * 3;
                 ;              	a |= (c & 0x02) * 6;
                 ;              	a |= (c & 0x04) * 12;
                 ;              	a |= (c & 0x08) * 24;
                 ;
                 ;     	        LcdCache[LcdCacheIdx] = b;	//    
                 ;     	        LcdCache[LcdCacheIdx+1] = b;    //    
                 ;     	        LcdCache[LcdCacheIdx+84] = a;
                 ;     	        LcdCache[LcdCacheIdx+85] = a;
                 ;     	        LcdCacheIdx = LcdCacheIdx+2;
                 ;     	        }
                 ;
                 ;     	LcdCache[LcdCacheIdx++] = 0x00;	//   
                 ;     	LcdCache[LcdCacheIdx++] = 0x00;
                 ; 	}
                 ;
                 ;void LcdStringBold (unsigned char x, unsigned char y)	//Displays a string at current cursor location
                 ;	{
                 ;	unsigned char i;
                 ;
                 ;	if (x > 13 || y > 5) return;
                 ;	x -> Y+2
                 ;	y -> Y+1
                 ;	i -> R17
                 ;	LcdGotoXYFont (x, y);
                 ;	for ( i = 0; i < 14-x; i++ ) if (lcd_buf[i]) LcdChrBold (lcd_buf[i]);
                 ;	clean_lcd_buf();
                 ;	}
                 ;
                 ;void LcdChrBig (int ch)	//Displays a character at current cursor location and increment cursor location
                 ; 	{
                 ;     	unsigned char i;
                 ;     	unsigned char a = 0, b = 0, c = 0;
                 ;
                 ;     	for ( i = 0; i < 5; i++ )
                 ;	ch -> Y+4
                 ;	i -> R17
                 ;	a -> R16
                 ;	b -> R19
                 ;	c -> R18
                 ;     	        {
                 ;     	        c = table[(ch*5+i)];		//   
                 ;
                 ;     	        b =  (c & 0x01) * 3;            //""    
                 ;              	b |= (c & 0x02) * 6;
                 ;              	b |= (c & 0x04) * 12;
                 ;              	b |= (c & 0x08) * 24;
                 ;
                 ;              	c >>= 4;
                 ;              	a =  (c & 0x01) * 3;
                 ;              	a |= (c & 0x02) * 6;
                 ;              	a |= (c & 0x04) * 12;
                 ;              	a |= (c & 0x08) * 24;
                 ;     	        LcdCache[LcdCacheIdx] = b;
                 ;     	        LcdCache[LcdCacheIdx+84] = a;
                 ;     	        LcdCacheIdx = LcdCacheIdx+1;
                 ;     	        }
                 ;
                 ;     	LcdCache[LcdCacheIdx++] = 0x00;
                 ;     	}
                 ;
                 ;void LcdStringBig (unsigned char x, unsigned char y)	//Displays a string at current cursor location
                 ;	{
                 ;	unsigned char i;
                 ;
                 ;	if (x > 14 || y > 5) return;
                 ;	x -> Y+2
                 ;	y -> Y+1
                 ;	i -> R17
                 ;	LcdGotoXYFont (x, y);
                 ;	for ( i = 0; i < 15-x; i++ ) if (lcd_buf[i]) LcdChrBig (lcd_buf[i]);
                 ;	clean_lcd_buf();
                 ;	}
                 ;
                 ;#pragma used-
                 ;//   3310
                 ;
                 ;  flash unsigned char waitImage[] = {
                 ;  0x00,0x00,0x00,0x00,0x00,0x00,0x00,0x00,0x00,0x00,0x00,0x00,0x00,0x00,0x00,0x00,
                 ;  0x00,0x00,0x00,0x00,0x00,0x00,0x00,0x00,0x00,0x00,0x00,0x00,0x00,0x00,0x00,0x00,
                 ;  0x00,0x00,0x00,0x00,0x00,0x00,0x00,0x00,0x00,0x00,0x00,0x00,0x00,0x00,0x00,0x00,
                 ;  0x00,0x00,0x00,0x00,0x00,0x00,0x00,0x00,0x00,0x00,0x00,0x00,0x00,0x00,0x00,0x00,
                 ;  0x00,0x00,0x00,0x00,0x00,0x00,0x00,0x00,0x00,0x00,0x00,0x00,0x00,0x00,0x00,0x00,
                 ;  0x00,0x00,0x00,0x00,0x00,0x00,0x00,0x00,0x00,0x00,0x00,0x00,0x00,0xC0,0x20,0x20,
                 ;  0x20,0x20,0x20,0x20,0x20,0x20,0x20,0x20,0xC0,0x00,0x00,0x00,0x00,0x00,0x00,0x00,
                 ;  0x00,0x00,0xF0,0x10,0x10,0x10,0x10,0xE0,0x00,0x00,0xF0,0x00,0x00,0x80,0x40,0x40,
                 ;  0x40,0x80,0x00,0x00,0x80,0x40,0x40,0x40,0x80,0x00,0x00,0x80,0x40,0x40,0x40,0x80,
                 ;  0x00,0x00,0x80,0x40,0x40,0x40,0x80,0x00,0x00,0x00,0x00,0x00,0x00,0x00,0x00,0x00,
                 ;  0x00,0x00,0x00,0x00,0x00,0x00,0x00,0x00,0x00,0x00,0x00,0x00,0x00,0x00,0x00,0x00,
                 ;  0x00,0x0F,0x11,0x31,0x31,0xD1,0xF1,0xD1,0xD1,0x31,0x11,0x11,0x0F,0x00,0x00,0x00,
                 ;  0x00,0x00,0x00,0x00,0x00,0x00,0x1F,0x01,0x01,0x01,0x01,0x00,0x00,0x00,0x1F,0x00,
                 ;  0x00,0x0F,0x12,0x12,0x12,0x0B,0x00,0x00,0x0C,0x12,0x12,0x0A,0x1F,0x00,0x00,0x09,
                 ;  0x12,0x12,0x12,0x0C,0x00,0x00,0x0F,0x12,0x12,0x12,0x0B,0x00,0x00,0x00,0x00,0x00,
                 ;  0x00,0x00,0x00,0x00,0x00,0x00,0x00,0x00,0x00,0x00,0x00,0x00,0x00,0x00,0x00,0x00,
                 ;  0x00,0x00,0x00,0x00,0x00,0xF0,0x18,0x86,0x86,0xE1,0xF1,0xE1,0xE1,0x86,0x18,0x18,
                 ;  0xF0,0x00,0x00,0x00,0x00,0x00,0x00,0x00,0x00,0x00,0x00,0x00,0x60,0x80,0x00,0x80,
                 ;  0x60,0x80,0x00,0x80,0x60,0x00,0x40,0x20,0x20,0x20,0xC0,0x00,0x00,0xE8,0x00,0x20,
                 ;  0xF8,0x20,0x00,0x00,0x00,0x00,0x00,0x00,0x00,0x00,0x00,0x00,0x00,0x00,0x00,0x00,
                 ;  0x00,0x00,0x00,0x00,0x00,0x00,0x00,0x00,0x00,0x00,0x00,0x00,0x00,0x00,0x00,0x00,
                 ;  0x00,0x00,0x00,0x00,0x00,0x00,0x00,0x00,0x00,0x03,0x07,0x07,0x07,0x07,0x07,0x07,
                 ;  0x07,0x07,0x07,0x07,0x03,0x00,0x00,0x00,0x00,0x00,0x00,0x00,0x00,0x00,0x00,0x00,
                 ;  0x00,0x03,0x0C,0x03,0x00,0x03,0x0C,0x03,0x00,0x00,0x06,0x09,0x09,0x05,0x0F,0x00,
                 ;  0x00,0x0F,0x00,0x00,0x0F,0x08,0x00,0x00,0x00,0x00,0x08,0x00,0x00,0x08,0x00,0x00,
                 ;  0x08,0x00,0x00,0x00,0x00,0x00,0x00,0x00,0x00,0x00,0x00,0x00,0x00,0x00,0x00,0x00,
                 ;  0x00,0x00,0x00,0x00,0x00,0x00,0x00,0x00,0x00,0x00,0x00,0x00,0x00,0x00,0x00,0x00,
                 ;  0x00,0x00,0x00,0x00,0x00,0x00,0x00,0x00,0x00,0x00,0x00,0x00,0x00,0x00,0x00,0x00,
                 ;  0x00,0x00,0x00,0x00,0x00,0x00,0x00,0x00,0x00,0x00,0x00,0x00,0x00,0x00,0x00,0x00,
                 ;  0x00,0x00,0x00,0x00,0x00,0x00,0x00,0x00,0x00,0x00,0x00,0x00,0x00,0x00,0x00,0x00,
                 ;  0x00,0x00,0x00,0x00,0x00,0x00,0x00,0x00,0x00,0x00,0x00,0x00,0x00,0x00,0x00,0x00,
                 ;  0x00,0x00,0x00,0x00,0x00,0x00,0x00,0x00
                 ;  };
                 ;
                 ; flash unsigned char rad1Image[] = {	// 
                 ; 0x00,0x00,0x00,0x00,0x00,0x00,0x00,0x00,0x00,0x00,0x00,0x00,0x80,0xC0,0xE0,0xF0,
                 ; 0xF8,0xF8,0xFC,0xFC,0xFE,0xFE,0xFF,0xFF,0xFE,0xFC,0xF8,0xF0,0xE0,0xC0,0x80,0x00,
                 ; 0x00,0x00,0x00,0x00,0x00,0x00,0x00,0x00,0x00,0x00,0x00,0x00,0x00,0x00,0x00,0x00,
                 ; 0x00,0x00,0x00,0x00,0x00,0x80,0xC0,0xE0,0xF0,0xF8,0xFC,0xFE,0xFF,0xFF,0xFE,0xFE,
                 ; 0xFE,0xFC,0xF8,0xF8,0xF0,0xE0,0xC0,0x80,0x00,0x00,0x00,0x00,0x00,0x00,0x00,0x00,
                 ; 0x00,0x00,0x00,0x00,0x00,0x00,0x00,0x00,0x00,0x00,0x00,0x00,0xE0,0xF8,0xFE,0xFF,
                 ; 0xFF,0xFF,0xFF,0xFF,0xFF,0xFF,0xFF,0xFF,0xFF,0xFF,0xFF,0xFF,0xFF,0xFF,0xFF,0xFF,
                 ; 0xFF,0xFF,0xFF,0xFF,0xFE,0xFC,0xF8,0xF0,0xE0,0x40,0x00,0x00,0x00,0x00,0x00,0x00,
                 ; 0x00,0x00,0x40,0xE0,0xF0,0xF8,0xFC,0xFE,0xFF,0xFF,0xFF,0xFF,0xFF,0xFF,0xFF,0xFF,
                 ; 0xFF,0xFF,0xFF,0xFF,0xFF,0xFF,0xFF,0xFF,0xFF,0xFF,0xFF,0xFF,0xFF,0xFE,0xF8,0xE0,
                 ; 0x00,0x00,0x00,0x00,0x00,0x00,0x00,0x00,0x00,0x00,0x00,0x00,0x00,0x00,0x78,0x7F,
                 ; 0x7F,0x7F,0x7F,0x7F,0x7F,0x7F,0x7F,0x7F,0x7F,0x7F,0x7F,0x7F,0x7F,0x7F,0x7F,0x7F,
                 ; 0x7F,0x7F,0x7F,0x7F,0x7F,0x7F,0x7F,0x7F,0x0F,0x03,0x01,0xF0,0xF8,0xFC,0xFC,0xFE,
                 ; 0xFE,0xFE,0xFE,0xFE,0xFE,0xFC,0xFC,0xF8,0xF0,0x01,0x03,0x0F,0x7F,0x7F,0x7F,0x7F,
                 ; 0x7F,0x7F,0x7F,0x7F,0x7F,0x7F,0x7F,0x7F,0x7F,0x7F,0x7F,0x7F,0x7F,0x7F,0x7F,0x7F,
                 ; 0x7F,0x7F,0x7F,0x7F,0x7F,0x78,0x00,0x00,0x00,0x00,0x00,0x00,0x00,0x00,0x00,0x00,
                 ; 0x00,0x00,0x00,0x00,0x00,0x00,0x00,0x00,0x00,0x00,0x00,0x00,0x00,0x00,0x00,0x00,
                 ; 0x00,0x00,0x00,0x00,0x00,0x00,0x00,0x00,0x00,0x00,0x00,0x00,0x00,0x80,0xC0,0xE1,
                 ; 0xE3,0xE7,0xC7,0xCF,0x8F,0x8F,0x8F,0x8F,0xCF,0xC7,0xE7,0xE3,0xE1,0xC0,0x80,0x00,
                 ; 0x00,0x00,0x00,0x00,0x00,0x00,0x00,0x00,0x00,0x00,0x00,0x00,0x00,0x00,0x00,0x00,
                 ; 0x00,0x00,0x00,0x00,0x00,0x00,0x00,0x00,0x00,0x00,0x00,0x00,0x00,0x00,0x00,0x00,
                 ; 0x00,0x00,0x00,0x00,0x00,0x00,0x00,0x00,0x00,0x00,0x00,0x00,0x00,0x00,0x00,0x00,
                 ; 0x00,0x00,0x00,0x00,0x00,0x00,0x00,0x00,0x00,0x80,0xC0,0xE0,0xF0,0xF8,0xFC,0xFE,
                 ; 0xFF,0xFF,0xFF,0xFF,0xFF,0xFF,0xFF,0xFF,0xFF,0xFF,0xFF,0xFF,0xFF,0xFF,0xFF,0xFF,
                 ; 0xFF,0xFF,0xFF,0xFF,0xFE,0xFC,0xF8,0xF0,0xE0,0xC0,0x80,0x00,0x00,0x00,0x00,0x00,
                 ; 0x00,0x00,0x00,0x00,0x00,0x00,0x00,0x00,0x00,0x00,0x00,0x00,0x00,0x00,0x00,0x00,
                 ; 0x00,0x00,0x00,0x00,0x00,0x00,0x00,0x00,0x00,0x00,0x00,0x00,0x00,0x00,0x00,0x00,
                 ; 0x00,0x00,0x00,0x00,0x00,0x00,0x00,0x00,0x00,0x00,0x0C,0x0E,0x1F,0x1F,0x1F,0x3F,
                 ; 0x3F,0x3F,0x3F,0x7F,0x7F,0x7F,0xFF,0xFF,0xFF,0xFF,0xFF,0xFF,0xFF,0xFF,0xFF,0xFF,
                 ; 0xFF,0xFF,0xFF,0xFF,0xFF,0xFF,0x7F,0x7F,0x7F,0x3F,0x3F,0x3F,0x3F,0x1F,0x1F,0x1F,
                 ; 0x0E,0x0C,0x00,0x00,0x00,0x00,0x00,0x00,0x00,0x00,0x00,0x00,0x00,0x00,0x00,0x00,
                 ; 0x00,0x00,0x00,0x00,0x00,0x00,0x00,0x00};
                 ;
                 ; flash unsigned char rad2Image[] = {	// +
                 ; 0x00,0x00,0x00,0x00,0x00,0x00,0x00,0x00,0x00,0x00,0x00,0x00,0x80,0xC0,0xE0,0xF0,
                 ; 0xF8,0xF8,0xFC,0xFC,0xFE,0xFE,0xFF,0xFF,0xFE,0xFC,0xF8,0xF0,0xE0,0xC0,0x80,0x00,
                 ; 0x00,0x00,0x00,0x00,0x00,0x00,0x00,0x00,0x00,0x00,0x00,0x00,0x00,0x00,0x00,0x00,
                 ; 0x00,0x00,0x00,0x00,0x00,0x80,0xC0,0xE0,0xF0,0xF8,0xFC,0xFE,0xFF,0xFF,0xFE,0xFE,
                 ; 0xFC,0xFC,0xF8,0xF8,0xF0,0xE0,0xC0,0x80,0x00,0x00,0x00,0x00,0x00,0x00,0x00,0x00,
                 ; 0x00,0x00,0x00,0x00,0x00,0x00,0x00,0x00,0x00,0x00,0x00,0x00,0xE0,0xF8,0xFE,0xFF,
                 ; 0xFF,0xFF,0xFF,0xFF,0xFF,0xFF,0xFF,0xFF,0xFF,0xFF,0xFF,0xFF,0xFF,0xFF,0xFF,0xFF,
                 ; 0xFF,0xFF,0xFF,0xFF,0xFE,0xFC,0xF8,0xF0,0xE0,0x40,0x00,0x00,0x00,0x00,0x00,0x00,
                 ; 0x00,0x00,0x40,0xE0,0xF0,0xF8,0xFC,0xFE,0xFF,0xFF,0xFF,0xFF,0xFF,0xFF,0xFF,0xFF,
                 ; 0xFF,0xFF,0xFF,0xFF,0xFF,0xFF,0xFF,0xFF,0xFF,0xFF,0xFF,0xFF,0xFF,0xFE,0xF8,0xE0,
                 ; 0x00,0x00,0x00,0x00,0x00,0x00,0x00,0x00,0x00,0x00,0x00,0x00,0x00,0x00,0x78,0x7F,
                 ; 0x7F,0x7F,0x7F,0x7F,0x7F,0x7F,0x7F,0x7F,0x7F,0x7F,0x7F,0x7F,0x7F,0x7F,0x7F,0x7F,
                 ; 0x7F,0x7F,0x7F,0x7F,0x7F,0x7F,0x7F,0x7F,0x0F,0x03,0x01,0xF0,0xF8,0xFC,0xFC,0xFE,
                 ; 0xFE,0xFE,0xFE,0xFE,0xFE,0xFC,0xFC,0xF8,0xF0,0x01,0x03,0x0F,0x7F,0x7F,0x7F,0x7F,
                 ; 0x7F,0x7F,0x7F,0x7F,0x7F,0x7F,0x7F,0x7F,0x7F,0x7F,0x7F,0x7F,0x7F,0x7F,0x7F,0x7F,
                 ; 0x7F,0x7F,0x7F,0x7F,0x7F,0x78,0x00,0x00,0x00,0x00,0x00,0x00,0x00,0x00,0x00,0x00,
                 ; 0x00,0x00,0x00,0x00,0x00,0x00,0x00,0x00,0x00,0x00,0x00,0x00,0x00,0x00,0x00,0x00,
                 ; 0x00,0x00,0x00,0x00,0x00,0x00,0x00,0x00,0x00,0x00,0x00,0x00,0x00,0x80,0xC0,0xE1,
                 ; 0xE3,0xE7,0xC7,0xCF,0x8F,0x8F,0x8F,0x8F,0xCF,0xC7,0xE7,0xE3,0xE1,0xC0,0x80,0x00,
                 ; 0x00,0x00,0x00,0x00,0x00,0x00,0x00,0x00,0x00,0x00,0x00,0x00,0x00,0x00,0x00,0x00,
                 ; 0x00,0x00,0x00,0x00,0x00,0x00,0x00,0x00,0x00,0x00,0x00,0x00,0x00,0x00,0x00,0x00,
                 ; 0x00,0x00,0x00,0x00,0x00,0x00,0x00,0x00,0x00,0x00,0x00,0x00,0x00,0x00,0x00,0x00,
                 ; 0x00,0x00,0x00,0x00,0x00,0x00,0x00,0x00,0x00,0x80,0xC0,0xE0,0xF0,0xF8,0xFC,0xFE,
                 ; 0xFF,0xFF,0xFF,0xFF,0xFF,0xFF,0xFF,0xFF,0xFF,0xFF,0xFF,0xFF,0xFF,0xFF,0xFF,0xFF,
                 ; 0xFF,0xFF,0xFF,0xFF,0xFE,0xFC,0xF8,0xF0,0xE0,0xC0,0x80,0x00,0x00,0x00,0x00,0x00,
                 ; 0x00,0x00,0x00,0x00,0x00,0x00,0x00,0x00,0x00,0x00,0x00,0x00,0x00,0x00,0x00,0x00,
                 ; 0x00,0x00,0x00,0x00,0x70,0x88,0x70,0x50,0x88,0x70,0x00,0xC8,0xA8,0x90,0x00,0x70,
                 ; 0x88,0x70,0x00,0x10,0xF8,0x00,0x70,0x88,0x70,0x00,0x0C,0x0E,0x1F,0x1F,0x1F,0x3F,
                 ; 0x3F,0x3F,0x3F,0x7F,0x7F,0x7F,0xFF,0xFF,0xFF,0xFF,0xFF,0xFF,0xFF,0xFF,0xFF,0xFF,
                 ; 0xFF,0xFF,0xFF,0xFF,0xFF,0xFF,0x7F,0x7F,0x7F,0x3F,0x3F,0x3F,0x3F,0x1F,0x1F,0x1F,
                 ; 0x0E,0x0C,0x00,0x00,0x00,0xF0,0x28,0xF0,0x00,0xF8,0x20,0xF8,0x00,0xF8,0xA8,0x88,
                 ; 0x00,0x88,0xF8,0x88,0x00,0xF8,0x48,0xB0};
                 ;
                 ;flash unsigned char rad3Image[] = {	 //++abc
                 ;0x00,0x00,0x00,0x00,0x00,0x00,0x00,0x00,0x00,0x00,0x00,0x00,0x80,0xC0,0xE0,0xF0,
                 ;0xF8,0xF8,0xFC,0xFC,0xFE,0xFE,0xFF,0xFF,0xFE,0xFC,0xF8,0xF0,0xE0,0xC0,0x80,0x00,
                 ;0x00,0x00,0x00,0x00,0x00,0xC0,0x20,0x20,0x20,0x40,0x80,0x40,0x20,0x10,0x0C,0x00,
                 ;0x00,0x00,0x00,0x00,0x00,0x80,0xC0,0xE0,0xF0,0xF8,0xFC,0xFE,0xFF,0xFF,0xFE,0xFE,
                 ;0xFC,0xFC,0xF8,0xF8,0xF0,0xE0,0xC0,0x80,0x00,0x00,0x00,0x00,0x00,0x00,0x00,0x00,
                 ;0x00,0x00,0x00,0x00,0x00,0x00,0x00,0x00,0x00,0x00,0x00,0x00,0xE0,0xF8,0xFE,0xFF,
                 ;0xFF,0xFF,0xFF,0xFF,0xFF,0xFF,0xFF,0xFF,0xFF,0xFF,0xFF,0xFF,0xFF,0xFF,0xFF,0xFF,
                 ;0xFF,0xFF,0xFF,0xFF,0xFE,0xFC,0xF8,0xF0,0xE0,0x41,0x02,0x02,0x02,0x01,0x00,0x01,
                 ;0x02,0x02,0x41,0xE0,0xF0,0xF8,0xFC,0xFE,0xFF,0xFF,0xFF,0xFF,0xFF,0xFF,0xFF,0xFF,
                 ;0xFF,0xFF,0xFF,0xFF,0xFF,0xFF,0xFF,0xFF,0xFF,0xFF,0xFF,0xFF,0xFF,0xFE,0xF8,0xE0,
                 ;0x00,0x00,0x00,0x00,0x00,0x00,0x00,0x00,0x00,0x00,0x00,0x00,0x00,0x00,0x78,0x7F,
                 ;0x7F,0x7F,0x7F,0x7F,0x7F,0x7F,0x7F,0x7F,0x7F,0x7F,0x7F,0x7F,0x7F,0x7F,0x7F,0x7F,
                 ;0x7F,0x7F,0x7F,0x7F,0x7F,0x7F,0x7F,0x7F,0x0F,0x03,0x01,0xF0,0xF8,0xFC,0xFC,0xFE,
                 ;0xFE,0xFE,0xFE,0xFE,0xFE,0xFC,0xFC,0xF8,0xF0,0x01,0x03,0x0F,0x7F,0x7F,0x7F,0x7F,
                 ;0x7F,0x7F,0x7F,0x7F,0x7F,0x7F,0x7F,0x7F,0x7F,0x7F,0x7F,0x7F,0x7F,0x7F,0x7F,0x7F,
                 ;0x7F,0x7F,0x7F,0x7F,0x7F,0x78,0x00,0x00,0x00,0x00,0x00,0x00,0x00,0x00,0x00,0x00,
                 ;0x00,0x00,0x00,0x00,0x00,0x00,0x00,0x00,0x00,0x00,0x00,0x00,0x00,0x00,0x00,0x00,
                 ;0x00,0x00,0xF8,0x24,0x24,0x58,0x80,0x00,0x00,0x00,0x00,0x00,0x00,0x80,0xC0,0xE1,
                 ;0xE3,0xE7,0xC7,0xCF,0x8F,0x8F,0x8F,0x8F,0xCF,0xC7,0xE7,0xE3,0xE1,0xC0,0x80,0x00,
                 ;0x00,0x00,0x00,0x00,0x00,0x00,0x08,0x30,0xC0,0xC0,0x30,0x0C,0x02,0x00,0x00,0x00,
                 ;0x00,0x00,0x00,0x00,0x00,0x00,0x00,0x00,0x00,0x00,0x00,0x00,0x00,0x00,0x00,0x00,
                 ;0x00,0x00,0x00,0x00,0x00,0x00,0x00,0x00,0x00,0x00,0x00,0x00,0x00,0x00,0x00,0x00,
                 ;0x00,0x00,0x00,0x08,0x10,0x10,0x0F,0x02,0x04,0x84,0xC3,0xE0,0xF0,0xF8,0xFC,0xFE,
                 ;0xFF,0xFF,0xFF,0xFF,0xFF,0xFF,0xFF,0xFF,0xFF,0xFF,0xFF,0xFF,0xFF,0xFF,0xFF,0xFF,
                 ;0xFF,0xFF,0xFF,0xFF,0xFE,0xFC,0xF8,0xF0,0xE0,0xC0,0x80,0x0F,0x10,0x10,0x0F,0x00,
                 ;0x00,0x00,0x00,0x00,0x00,0x00,0x00,0x00,0x00,0x00,0x00,0x00,0x00,0x00,0x00,0x00,
                 ;0x00,0x00,0x00,0x00,0x70,0x88,0x70,0x50,0x88,0x70,0x00,0xC8,0xA8,0x90,0x00,0x70,
                 ;0x88,0x70,0x00,0x10,0xF8,0x00,0x10,0xF8,0x00,0x00,0x0C,0x0E,0x1F,0x1F,0x1F,0x3F,
                 ; 0x88,0x70,0x00,0x10,0xF8,0x00,0x70,0x88,0x70,0x00,0x0C,0x0E,0x1F,0x1F,0x1F,0x3F,
                 ;0x3F,0x3F,0x3F,0x7F,0x7F,0x7F,0xFF,0xFF,0xFF,0xFF,0xFF,0xFF,0xFF,0xFF,0xFF,0xFF,
                 ;0xFF,0xFF,0xFF,0xFF,0xFF,0xFF,0x7F,0x7F,0x7F,0x3F,0x3F,0x3F,0x3F,0x1F,0x1F,0x1F,
                 ;0x0E,0x0C,0x00,0x00,0x00,0xF0,0x28,0xF0,0x00,0xF8,0x20,0xF8,0x00,0xF8,0xA8,0x88,
                 ;0x00,0x88,0xF8,0x88,0x00,0xF8,0x48,0xB0};
                 ;
                 ; flash unsigned char rad4Image[] = {	// ++abc()
                 ; 0x00,0x00,0x00,0x00,0x00,0x00,0x00,0x00,0x00,0x00,0x00,0x00,0x80,0xC0,0xE0,0xF0,
                 ; 0xF8,0xF8,0xFC,0xFC,0xFE,0xFE,0xFF,0xFF,0xFE,0xFC,0xF8,0xF0,0xE0,0xC0,0x80,0x00,
                 ; 0x00,0x00,0x00,0x00,0x00,0x00,0x00,0x00,0x00,0x00,0x00,0x00,0x00,0x00,0x00,0x00,
                 ; 0x00,0x00,0x00,0x00,0x00,0x80,0xC0,0xE0,0xF0,0xF8,0xFC,0xFE,0xFF,0xFF,0xFE,0xFE,
                 ; 0xFC,0xFC,0xF8,0xF8,0xF0,0xE0,0xC0,0x80,0x00,0x00,0x00,0x00,0x00,0x00,0x00,0x00,
                 ; 0x00,0x00,0x00,0x00,0x00,0x00,0x00,0x00,0x00,0x00,0x00,0x00,0xE0,0xF8,0xFE,0xFF,
                 ; 0xFF,0xFF,0xFF,0xFF,0xFF,0x1F,0xEF,0xEF,0xEF,0x5F,0xBF,0x5F,0xEF,0xF7,0x79,0xFF,
                 ; 0xFF,0xFF,0xFF,0xFF,0xFE,0xFC,0xF8,0xF0,0xE0,0x40,0x00,0x00,0x00,0x00,0x00,0x00,
                 ; 0x00,0x00,0x40,0xE0,0xF0,0xF8,0xFC,0xFE,0xFF,0xFF,0xFF,0xFF,0xFF,0xFF,0xFF,0xFF,
                 ; 0xFB,0x67,0x9F,0x9F,0x67,0xF9,0xFE,0xFF,0xFF,0xFF,0xFF,0xFF,0xFF,0xFE,0xF8,0xE0,
                 ; 0x00,0x00,0x00,0x00,0x00,0x00,0x00,0x00,0x00,0x00,0x00,0x00,0x00,0x00,0x78,0x7F,
                 ; 0x7F,0x7F,0x7F,0x7F,0x7F,0x7F,0x7F,0x7F,0x7F,0x7F,0x7E,0x7E,0x7E,0x7F,0x7F,0x7F,
                 ; 0x7E,0x7E,0x7F,0x7F,0x7F,0x7F,0x7F,0x7F,0x0F,0x03,0x01,0xF0,0xF8,0xFC,0xFC,0xFE,
                 ; 0xFE,0xFE,0xFE,0xFE,0xFE,0xFC,0xFC,0xF8,0xF0,0x01,0x03,0x0F,0x7F,0x7F,0x7F,0x7F,
                 ; 0x7F,0x7F,0x7F,0x7F,0x7F,0x78,0x77,0x77,0x78,0x7F,0x7F,0x7F,0x7F,0x7F,0x7F,0x7F,
                 ; 0x7F,0x7F,0x7F,0x7F,0x7F,0x78,0x00,0x00,0x00,0x00,0x00,0x00,0x00,0x00,0x00,0x00,
                 ; 0x00,0x00,0x00,0x00,0x00,0x00,0x00,0x00,0x00,0x00,0x00,0x00,0x00,0x00,0x00,0x00,
                 ; 0x00,0x00,0x00,0x00,0x00,0x00,0x00,0x00,0x00,0x00,0x00,0x00,0x00,0x80,0xC0,0xE1,
                 ; 0xE3,0xE7,0xC7,0xCF,0x8F,0x8F,0x8F,0x8F,0xCF,0xC7,0xE7,0xE3,0xE1,0xC0,0x80,0x00,
                 ; 0x00,0x00,0x00,0x00,0x00,0x00,0x00,0x00,0x00,0x00,0x00,0x00,0x00,0x00,0x00,0x00,
                 ; 0x00,0x00,0x00,0x00,0x00,0x00,0x00,0x00,0x00,0x00,0x00,0x00,0x00,0x00,0x00,0x00,
                 ; 0x00,0x00,0x00,0x00,0x00,0x00,0x00,0x00,0x00,0x00,0x00,0x00,0x00,0x00,0x00,0x00,
                 ; 0x00,0x00,0x00,0x00,0x00,0x00,0x00,0x00,0x00,0x80,0xC0,0xE0,0xF0,0xF8,0xFC,0xFE,
                 ; 0xFF,0xFF,0xFF,0xFF,0xFF,0xFF,0xFF,0xFF,0xFF,0x07,0xDB,0xDB,0xA7,0x7F,0xFF,0xFF,
                 ; 0xFF,0xFF,0xFF,0xFF,0xFE,0xFC,0xF8,0xF0,0xE0,0xC0,0x80,0x00,0x00,0x00,0x00,0x00,
                 ; 0x00,0x00,0x00,0x00,0x00,0x00,0x00,0x00,0x00,0x00,0x00,0x00,0x00,0x00,0x00,0x00,
                 ; 0x00,0x00,0x00,0x00,0x70,0x88,0x70,0x50,0x88,0x70,0x00,0xC8,0xA8,0x90,0x00,0x70,
                 ; 0x88,0x70,0x00,0x10,0xF8,0x00,0x70,0x88,0x70,0x00,0x0C,0x0E,0x1F,0x1F,0x1F,0x3F,
                 ; 0x3F,0x3F,0x3F,0x7F,0x7F,0x7F,0xFF,0xFF,0xFF,0xFF,0xF7,0xEF,0xEF,0xF0,0xFD,0xFB,
                 ; 0xFB,0xFC,0xFF,0xFF,0xFF,0xFF,0x7F,0x7F,0x7F,0x3F,0x3F,0x3F,0x3F,0x1F,0x1F,0x1F,
                 ; 0x0E,0x0C,0x00,0x00,0x00,0xF0,0x28,0xF0,0x00,0xF8,0x20,0xF8,0x00,0xF8,0xA8,0x88,
                 ; 0x00,0x88,0xF8,0x88,0x00,0xF8,0x48,0xB0};
                 ;
                 ;
                 ; flash unsigned char mini_WIN[504] =
                 ;{ 0x00, 0x00, 0x00, 0x00, 0x00, 0x00, 0x00, 0x00, 0x00, 0x00, 0x00, 0x00,
                 ;  0x00, 0x00, 0x00, 0x80, 0x80, 0xC0, 0xE0, 0xE0, 0xE0, 0xE0, 0xF0, 0x70,
                 ;  0x70, 0x38, 0x38, 0x38, 0x38, 0x18, 0x18, 0x18, 0x1C, 0x1C, 0x1C, 0x1C,
                 ;  0x1C, 0x1C, 0x1C, 0x1C, 0x1C, 0x1C, 0x1C, 0x1C, 0x1C, 0x1C, 0x1C, 0x1C,
                 ;  0x1C, 0x1C, 0x1C, 0x1C, 0x18, 0x18, 0x18, 0x38, 0x38, 0x38, 0x79, 0x70,
                 ;  0xF0, 0xF0, 0xE0, 0xE0, 0xE0, 0xC0, 0xC0, 0x80, 0x80, 0x00, 0x00, 0x00,
                 ;  0x00, 0x00, 0x00, 0x00, 0x00, 0x00, 0x00, 0x00, 0x00, 0x00, 0x00, 0x00,
                 ;  0x00, 0x00, 0x00, 0x00, 0x00, 0x80, 0xE0, 0xE0, 0xF0, 0xF8, 0x7C, 0x3E,
                 ;  0x1F, 0x0F, 0x07, 0x07, 0x03, 0x03, 0x01, 0x01, 0x00, 0x00, 0x00, 0x00,
                 ;  0x00, 0xC0, 0xE0, 0xF8, 0xF8, 0xF8, 0xFC, 0xFC, 0xFC, 0xFC, 0xFC, 0xFC,
                 ;  0xFC, 0xFC, 0xFC, 0xFC, 0xFC, 0xFC, 0xFC, 0xF8, 0x38, 0x10, 0x80, 0xC0,
                 ;  0xE0, 0xE0, 0xE0, 0xC0, 0xC0, 0xC0, 0xC0, 0xC0, 0xC0, 0xC0, 0xC0, 0xC0,
                 ;  0xC0, 0xC0, 0xC0, 0xC1, 0xC1, 0x61, 0x23, 0x03, 0x07, 0x0F, 0x1F, 0x3E,
                 ;  0x7E, 0x7C, 0xF8, 0xF0, 0xE0, 0xE0, 0x80, 0x00, 0x00, 0x00, 0x00, 0x00,
                 ;  0x00, 0x00, 0x00, 0xFC, 0xFF, 0xFF, 0xFF, 0xFF, 0x0F, 0x03, 0x00, 0x00,
                 ;  0x00, 0x00, 0x00, 0x00, 0x00, 0x00, 0x00, 0x00, 0x00, 0xC0, 0xC0, 0xEC,
                 ;  0xE6, 0xF7, 0xF7, 0xF7, 0xF7, 0xF7, 0xF7, 0xF7, 0xF7, 0xF7, 0xF7, 0xF7,
                 ;  0xE7, 0xE7, 0xE7, 0xCF, 0x0F, 0x0F, 0x83, 0x81, 0x9C, 0x3E, 0x3F, 0x7F,
                 ;  0x7F, 0x7F, 0x7F, 0x7F, 0x7F, 0x7F, 0x7F, 0x7F, 0x7F, 0x7F, 0x7F, 0x3F,
                 ;  0xBF, 0x1F, 0x1F, 0x07, 0x01, 0x00, 0x00, 0x00, 0x00, 0x00, 0x00, 0x00,
                 ;  0x00, 0x00, 0x03, 0xFF, 0xFF, 0xFF, 0xFF, 0xFE, 0xFC, 0x00, 0x00, 0x00,
                 ;  0x00, 0x00, 0x00, 0x01, 0x07, 0x0F, 0x3F, 0x7F, 0xFF, 0xFC, 0xF0, 0xE0,
                 ;  0xC0, 0x80, 0x00, 0x00, 0x00, 0x30, 0x38, 0x1E, 0x1F, 0x1F, 0x1F, 0x1F,
                 ;  0x1F, 0x1F, 0x1F, 0x1F, 0x1F, 0x1F, 0x1F, 0x1F, 0x3F, 0x3F, 0x3F, 0x3F,
                 ;  0x0F, 0x07, 0x41, 0xF0, 0xFC, 0xFF, 0xFF, 0xFF, 0xFF, 0xFF, 0xFF, 0xFF,
                 ;  0xFF, 0xFF, 0xFF, 0xFF, 0xFF, 0xFF, 0xFF, 0xFF, 0x7F, 0x3F, 0x0F, 0x03,
                 ;  0x00, 0x00, 0x00, 0x00, 0x00, 0x00, 0x00, 0x00, 0x00, 0x00, 0x80, 0xC0,
                 ;  0xE0, 0xF0, 0xFE, 0xFF, 0x7F, 0x3F, 0x0F, 0x07, 0x01, 0x00, 0x00, 0x00,
                 ;  0x00, 0x00, 0x00, 0x00, 0x00, 0x00, 0x00, 0x00, 0x00, 0x01, 0x03, 0x03,
                 ;  0x07, 0x0F, 0x0F, 0x1E, 0x1E, 0x3C, 0x3C, 0x38, 0x38, 0x70, 0x70, 0xF0,
                 ;  0xE0, 0xE0, 0xE0, 0xC0, 0xC0, 0xC0, 0xC0, 0xC0, 0xC0, 0x80, 0x80, 0x80,
                 ;  0x80, 0x80, 0x80, 0x80, 0x80, 0x81, 0x81, 0x81, 0x81, 0x81, 0x81, 0x81,
                 ;  0x81, 0x81, 0x81, 0xC1, 0xC1, 0xC1, 0xC0, 0xC0, 0xC0, 0xE0, 0xE0, 0xF0,
                 ;  0x70, 0x70, 0x78, 0x38, 0x38, 0x3C, 0x3C, 0x1E, 0x0E, 0x0F, 0x07, 0x07,
                 ;  0x03, 0x03, 0x01, 0x00, 0x00, 0x00, 0x00, 0x00, 0x00, 0x00, 0x00, 0x00,
                 ;  0x00, 0x00, 0x00, 0x00, 0x00, 0x00, 0x00, 0x00, 0x00, 0x00, 0x00, 0x00,
                 ;  0x00, 0x00, 0x00, 0x00, 0x00, 0x00, 0x00, 0x00, 0x00, 0x00, 0x00, 0x00,
                 ;  0x00, 0x00, 0xF0, 0x10, 0x20, 0x11, 0xF1, 0x01, 0x01, 0xE9, 0x01, 0x03,
                 ;  0xE3, 0x23, 0xE3, 0x03, 0x03, 0xEB, 0x03, 0x03, 0x03, 0x13, 0x23, 0x43,
                 ;  0x83, 0x41, 0x21, 0x41, 0x81, 0x41, 0x21, 0x10, 0x00, 0x00, 0xE8, 0x00,
                 ;  0x00, 0xE0, 0x20, 0xE0, 0x00, 0x00, 0x00, 0x00, 0x00, 0x00, 0x00, 0x00,
                 ;  0x00, 0x00, 0x00, 0x00, 0x00, 0x00, 0x00, 0x00, 0x00, 0x00, 0x00, 0x00};
                 ;
                 ;
                 ; static const char psydion [504]  =       //
                 ;{ 0x00, 0x00, 0x00, 0x00, 0x00, 0x00, 0x00, 0x00, 0x00, 0x00, 0x00, 0x00,
                 ;  0x80, 0x80, 0xC0, 0xC0, 0xE0, 0x60, 0x70, 0x30, 0x30, 0x18, 0x18, 0x18,
                 ;  0x0C, 0x2C, 0x2C, 0x2C, 0x2C, 0xE6, 0xE6, 0xE6, 0xC6, 0x02, 0x02, 0x02,
                 ;  0x02, 0x02, 0x02, 0x02, 0x02, 0x02, 0x02, 0x02, 0x02, 0x02, 0x02, 0x02,
                 ;  0x02, 0x02, 0xC2, 0xE6, 0xE6, 0xE6, 0x26, 0x2C, 0x2C, 0x2C, 0x0C, 0x08,
                 ;  0x18, 0x18, 0x18, 0x30, 0x30, 0x70, 0x60, 0xE0, 0xC0, 0xC0, 0x80, 0x80,
                 ;  0x00, 0x00, 0x00, 0x00, 0x00, 0x00, 0x00, 0x00, 0x00, 0x00, 0x00, 0x00,
                 ;  0x00, 0x00, 0x00, 0x80, 0xC0, 0xF0, 0x38, 0x1C, 0x8C, 0x0E, 0x06, 0x07,
                 ;  0x03, 0x01, 0x01, 0x00, 0x00, 0x00, 0x00, 0x00, 0x00, 0x00, 0x00, 0x00,
                 ;  0x00, 0x00, 0x00, 0x00, 0x00, 0x0F, 0x1F, 0x3F, 0x7F, 0x78, 0x60, 0x40,
                 ;  0xC3, 0xC3, 0xC3, 0xFF, 0xFF, 0xFF, 0xFF, 0xFF, 0xC3, 0xC3, 0xC3, 0x40,
                 ;  0x60, 0x78, 0x7F, 0x3F, 0x1F, 0x0F, 0x00, 0x00, 0x00, 0x00, 0x00, 0x00,
                 ;  0x00, 0x00, 0x00, 0x00, 0x00, 0x00, 0x00, 0x00, 0x00, 0x01, 0x01, 0x03,
                 ;  0x07, 0x06, 0x8E, 0x1C, 0x38, 0x78, 0xF0, 0xC0, 0x80, 0x00, 0x00, 0x00,
                 ;  0x00, 0xF8, 0xFE, 0x1F, 0x03, 0x00, 0x00, 0x00, 0x07, 0x06, 0x06, 0x0E,
                 ;  0x0E, 0xEE, 0xEE, 0x8E, 0x8E, 0x8E, 0x8E, 0x8E, 0x8E, 0x8C, 0x9C, 0xF8,
                 ;  0xF0, 0xC0, 0x80, 0x80, 0x80, 0x80, 0x80, 0x80, 0x80, 0x80, 0x80, 0x80,
                 ;  0x80, 0xC0, 0xE0, 0xFF, 0x7F, 0xFF, 0x7F, 0xFF, 0xE0, 0xC0, 0x80, 0x80,
                 ;  0x80, 0x80, 0x80, 0x80, 0x80, 0x80, 0x80, 0x80, 0x80, 0xE0, 0xF8, 0xB8,
                 ;  0x9C, 0x8C, 0x8E, 0x8E, 0x8E, 0x8E, 0x8E, 0xEE, 0xEE, 0x0E, 0x0E, 0x0E,
                 ;  0x06, 0x06, 0x07, 0x00, 0x00, 0x00, 0x00, 0x03, 0x1F, 0xFE, 0xF8, 0x00,
                 ;  0x00, 0x3F, 0xFF, 0xF0, 0xC0, 0x00, 0x00, 0x00, 0xC0, 0xE0, 0xE0, 0xE0,
                 ;  0xE0, 0xEF, 0xEF, 0xE3, 0xE3, 0xE3, 0xE3, 0x63, 0x73, 0x73, 0x3B, 0x3F,
                 ;  0x1F, 0x03, 0x03, 0x03, 0x03, 0x03, 0x03, 0x03, 0x03, 0x03, 0x03, 0x03,
                 ;  0x03, 0x07, 0x0F, 0xFF, 0xFD, 0xFE, 0xFD, 0xFF, 0x0F, 0x07, 0x03, 0x03,
                 ;  0x03, 0x03, 0x03, 0x03, 0x03, 0x03, 0x03, 0x03, 0x03, 0x0F, 0x1F, 0x3B,
                 ;  0x73, 0x73, 0x63, 0x63, 0xE3, 0xE3, 0xE3, 0xEF, 0xEF, 0xE0, 0xE0, 0xE0,
                 ;  0xE0, 0xE0, 0xC0, 0x00, 0x00, 0x00, 0x00, 0xC0, 0xF0, 0xFF, 0x3F, 0x00,
                 ;  0x00, 0x00, 0x00, 0x01, 0x07, 0x0F, 0x18, 0x30, 0x33, 0x60, 0xE0, 0xC0,
                 ;  0xC0, 0x80, 0x00, 0x00, 0x00, 0x00, 0x00, 0x00, 0x00, 0x00, 0x00, 0x00,
                 ;  0x00, 0x00, 0x00, 0x00, 0x00, 0xF0, 0xF8, 0xFC, 0xFC, 0x1C, 0x0E, 0x06,
                 ;  0x86, 0x86, 0x86, 0xFF, 0xFF, 0xFF, 0xFF, 0xFF, 0x86, 0x86, 0x86, 0x06,
                 ;  0x0E, 0x1C, 0xFC, 0xF8, 0xF8, 0xE0, 0x00, 0x00, 0x00, 0x00, 0x00, 0x00,
                 ;  0x00, 0x00, 0x00, 0x00, 0x00, 0x00, 0x00, 0x00, 0x00, 0x00, 0x80, 0xC0,
                 ;  0xC0, 0xE0, 0x73, 0x38, 0x38, 0x1E, 0x0F, 0x07, 0x01, 0x00, 0x00, 0x00,
                 ;  0x00, 0x00, 0x00, 0x00, 0x00, 0x00, 0x00, 0x00, 0x00, 0x00, 0x00, 0x00,
                 ;  0x01, 0x03, 0x03, 0x07, 0x06, 0x0E, 0x0C, 0x0C, 0x18, 0x18, 0x38, 0x30,
                 ;  0x20, 0x28, 0x28, 0x68, 0x6C, 0x6F, 0x6F, 0x67, 0x43, 0xC0, 0xC0, 0xC0,
                 ;  0xC1, 0xC1, 0xC1, 0xC1, 0xC1, 0xC1, 0xC1, 0xC1, 0xC1, 0xC1, 0xC1, 0xC0,
                 ;  0xC0, 0xC0, 0xC3, 0x47, 0x6F, 0x6F, 0x6C, 0x68, 0x68, 0x28, 0x20, 0x30,
                 ;  0x30, 0x38, 0x18, 0x18, 0x0C, 0x0C, 0x0E, 0x06, 0x07, 0x03, 0x03, 0x01,
                 ;  0x00, 0x00, 0x00, 0x00, 0x00, 0x00, 0x00, 0x00, 0x00, 0x00, 0x00, 0x00};
                 ;
                 ;  static const char psy[504] =                      //   
                 ;{ 0x00, 0x00, 0x00, 0x30, 0x30, 0x30, 0x70, 0xF0, 0xF0, 0xF0, 0xF0, 0xF0,
                 ;  0xE0, 0xE0, 0xC0, 0xC0, 0x80, 0x80, 0x00, 0x00, 0x00, 0x00, 0x00, 0x00,
                 ;  0x00, 0x00, 0x70, 0x70, 0x70, 0x70, 0x70, 0x70, 0x70, 0x70, 0xF0, 0xF0,
                 ;  0xF0, 0xF0, 0xF0, 0xF0, 0xF0, 0xF0, 0xF0, 0xF0, 0xF0, 0xF0, 0xF0, 0xF0,
                 ;  0xF0, 0xF0, 0xF0, 0x70, 0x70, 0x70, 0x70, 0x70, 0x70, 0x70, 0x70, 0x00,
                 ;  0x00, 0x00, 0x00, 0x00, 0x00, 0x00, 0x00, 0x80, 0xC0, 0xC0, 0xE0, 0xE0,
                 ;  0xF0, 0xF0, 0xF0, 0xF0, 0xF0, 0x70, 0x30, 0x30, 0x30, 0x00, 0x00, 0x00,
                 ;  0x00, 0x00, 0x00, 0x00, 0x00, 0x00, 0x00, 0x00, 0x1F, 0xFF, 0xFF, 0xFF,
                 ;  0xFF, 0xFF, 0xFF, 0xFF, 0xFF, 0xFF, 0xFF, 0xFC, 0xF0, 0x00, 0x00, 0x00,
                 ;  0x00, 0x00, 0x00, 0x00, 0x00, 0x00, 0x00, 0x00, 0x00, 0x00, 0x00, 0x00,
                 ;  0x01, 0xFF, 0xFF, 0xFF, 0xFF, 0xFF, 0xFF, 0xFF, 0xFF, 0xFF, 0xFF, 0xFF,
                 ;  0x01, 0x00, 0x00, 0x00, 0x00, 0x00, 0x00, 0x00, 0x00, 0x00, 0x00, 0x00,
                 ;  0x00, 0x00, 0x00, 0x00, 0xF0, 0xFC, 0xFF, 0xFF, 0xFF, 0xFF, 0xFF, 0xFF,
                 ;  0xFF, 0xFF, 0xFF, 0x1F, 0x00, 0x00, 0x00, 0x00, 0x00, 0x00, 0x00, 0x00,
                 ;  0x00, 0x00, 0x00, 0x00, 0x00, 0x00, 0x00, 0x00, 0x00, 0x00, 0x03, 0x0F,
                 ;  0x3F, 0x7F, 0xFF, 0xFF, 0xFF, 0xFF, 0xFF, 0xFF, 0xFF, 0xF8, 0xF0, 0xE0,
                 ;  0xC0, 0xC0, 0x80, 0x80, 0x80, 0x00, 0x00, 0x00, 0x00, 0x00, 0x00, 0x00,
                 ;  0x00, 0xFF, 0xFF, 0xFF, 0xFF, 0xFF, 0xFF, 0xFF, 0xFF, 0xFF, 0xFF, 0xFF,
                 ;  0x00, 0x00, 0x00, 0x00, 0x00, 0x00, 0x00, 0x00, 0x80, 0x80, 0x80, 0xC0,
                 ;  0xC0, 0xE0, 0xF0, 0xF8, 0xFF, 0xFF, 0xFF, 0xFF, 0xFF, 0xFF, 0x7F, 0x3F,
                 ;  0x0F, 0x03, 0x00, 0x00, 0x00, 0x00, 0x00, 0x00, 0x00, 0x00, 0x00, 0x00,
                 ;  0x00, 0x00, 0x00, 0x00, 0x00, 0x00, 0x00, 0x00, 0x00, 0x00, 0x00, 0x00,
                 ;  0x00, 0x00, 0x00, 0x00, 0x01, 0x01, 0x03, 0x03, 0x03, 0x03, 0x07, 0x07,
                 ;  0x07, 0x07, 0x07, 0x07, 0x07, 0x07, 0x07, 0x0F, 0x0F, 0x0F, 0x0F, 0x0F,
                 ;  0x0F, 0xFF, 0xFF, 0xFF, 0xFF, 0xFF, 0xFF, 0xFF, 0xFF, 0xFF, 0xFF, 0xFF,
                 ;  0x0F, 0x0F, 0x0F, 0x0F, 0x0F, 0x0F, 0x07, 0x07, 0x07, 0x07, 0x07, 0x07,
                 ;  0x07, 0x07, 0x03, 0x03, 0x03, 0x03, 0x01, 0x01, 0x01, 0x00, 0x00, 0x00,
                 ;  0x00, 0x00, 0x00, 0x00, 0x00, 0x00, 0x00, 0x00, 0x00, 0x00, 0x00, 0x00,
                 ;  0x00, 0x00, 0x00, 0x00, 0x00, 0x00, 0x00, 0x00, 0x00, 0x00, 0x00, 0x00,
                 ;  0x00, 0x00, 0x00, 0x00, 0x00, 0x00, 0x00, 0x00, 0x00, 0x00, 0x00, 0x00,
                 ;  0x00, 0x00, 0x00, 0x00, 0x00, 0x00, 0x00, 0x00, 0x00, 0x00, 0x00, 0x00,
                 ;  0x00, 0xFF, 0xFF, 0xFF, 0xFF, 0xFF, 0xFF, 0xFF, 0xFF, 0xFF, 0xFF, 0xFF,
                 ;  0x00, 0x00, 0x00, 0x00, 0x00, 0x00, 0x00, 0x00, 0x00, 0x00, 0x00, 0x00,
                 ;  0x00, 0x00, 0x00, 0x00, 0x00, 0x00, 0x00, 0x00, 0x00, 0x00, 0x00, 0x00,
                 ;  0x00, 0x00, 0x00, 0x00, 0x00, 0x00, 0x00, 0x00, 0x00, 0x00, 0x00, 0x00,
                 ;  0x00, 0x00, 0x00, 0x00, 0x00, 0x00, 0x00, 0x00, 0x00, 0x00, 0x00, 0x00,
                 ;  0x00, 0x00, 0x00, 0x00, 0x00, 0x00, 0x00, 0x00, 0x00, 0x00, 0x00, 0x00,
                 ;  0x00, 0x00, 0x1C, 0x1C, 0x1C, 0x1C, 0x1C, 0x1C, 0x1C, 0x1C, 0x1E, 0x1E,
                 ;  0x1F, 0x1F, 0x1F, 0x1F, 0x1F, 0x1F, 0x1F, 0x1F, 0x1F, 0x1F, 0x1F, 0x1F,
                 ;  0x1F, 0x1E, 0x1E, 0x1C, 0x1C, 0x1C, 0x1C, 0x1C, 0x1C, 0x1C, 0x1C, 0x00,
                 ;  0x00, 0x00, 0x00, 0x00, 0x00, 0x00, 0x00, 0x00, 0x00, 0x00, 0x00, 0x00,
                 ;  0x00, 0x00, 0x00, 0x00, 0x00, 0x00, 0x00, 0x00, 0x00, 0x00, 0x00, 0x00};
                 ;
                 ;  static const char owl[504] =                 //
                 ;{ 0x00, 0x00, 0x00, 0x00, 0x00, 0x00, 0x00, 0x00, 0x00, 0x00, 0x00, 0x00,
                 ;  0x00, 0x00, 0x00, 0x00, 0x00, 0x00, 0x00, 0x00, 0x00, 0x00, 0x00, 0x00,
                 ;  0x00, 0x00, 0x00, 0x00, 0x00, 0x00, 0x00, 0x00, 0x72, 0xF2, 0x9E, 0x5C,
                 ;  0xDC, 0xFC, 0xF8, 0x38, 0x08, 0xC0, 0xF0, 0xC0, 0x08, 0x38, 0xF8, 0xFC,
                 ;  0xDC, 0x5C, 0x9E, 0xF2, 0x72, 0x00, 0x00, 0x00, 0x00, 0x00, 0x00, 0x00,
                 ;  0x00, 0x00, 0x00, 0x00, 0x00, 0x00, 0x00, 0x00, 0x00, 0x00, 0x00, 0x00,
                 ;  0x00, 0x00, 0x00, 0x00, 0x00, 0x00, 0x00, 0x00, 0x00, 0x00, 0x00, 0x00,
                 ;  0x00, 0x00, 0x00, 0x00, 0x00, 0x00, 0x00, 0x00, 0x00, 0x00, 0x00, 0x00,
                 ;  0x00, 0x00, 0x00, 0x00, 0x00, 0x00, 0x00, 0x00, 0x00, 0x00, 0x00, 0x00,
                 ;  0x00, 0x00, 0x00, 0x00, 0x00, 0x3C, 0x7E, 0xE6, 0xDE, 0xBF, 0x77, 0xB3,
                 ;  0x9F, 0xFF, 0xC7, 0x82, 0x00, 0x20, 0x71, 0x20, 0x00, 0x82, 0xC7, 0xFF,
                 ;  0x9F, 0xB3, 0x77, 0xBF, 0xDE, 0xE6, 0x7E, 0x3C, 0x00, 0x00, 0x00, 0x00,
                 ;  0x00, 0x00, 0x00, 0x00, 0x00, 0x00, 0x00, 0x00, 0x00, 0x00, 0x00, 0x00,
                 ;  0x00, 0x00, 0x00, 0x00, 0x00, 0x00, 0x00, 0x00, 0x00, 0x00, 0x00, 0x00,
                 ;  0x00, 0x00, 0x00, 0x00, 0x00, 0x00, 0x00, 0x00, 0x00, 0x00, 0x00, 0x00,
                 ;  0x00, 0x00, 0x00, 0x00, 0x00, 0x00, 0x00, 0x00, 0x00, 0x00, 0x00, 0x00,
                 ;  0x00, 0x00, 0x00, 0x00, 0x00, 0x00, 0x00, 0x00, 0x00, 0x03, 0x03, 0x02,
                 ;  0x05, 0x01, 0x04, 0x6F, 0x3E, 0x0E, 0x7C, 0x0E, 0x3E, 0x6F, 0x04, 0x01,
                 ;  0x05, 0x02, 0x03, 0x03, 0x01, 0x00, 0x00, 0x00, 0x00, 0x00, 0x00, 0x00,
                 ;  0x00, 0x00, 0x00, 0x00, 0x00, 0x00, 0x00, 0x00, 0x00, 0x00, 0x00, 0x00,
                 ;  0x00, 0x00, 0x00, 0x00, 0x00, 0x00, 0x00, 0x00, 0x00, 0x00, 0x00, 0x00,
                 ;  0x00, 0x00, 0x08, 0x0C, 0x0E, 0x0E, 0x0E, 0x0E, 0x1E, 0x1F, 0x1F, 0x3F,
                 ;  0x3F, 0x3F, 0x37, 0x7B, 0xFB, 0x86, 0xFE, 0xEE, 0xE6, 0x3E, 0xCE, 0xFE,
                 ;  0xBC, 0xCC, 0xFC, 0xF8, 0xF8, 0xF0, 0xE0, 0x01, 0x39, 0xF9, 0xFF, 0xCF,
                 ;  0xAE, 0xEE, 0xFC, 0x7C, 0x00, 0x60, 0xF8, 0x60, 0x00, 0x7C, 0xFC, 0xEE,
                 ;  0xAE, 0xCF, 0xFF, 0xF9, 0x39, 0x01, 0xE0, 0xF0, 0xF8, 0xF8, 0xFC, 0xCC,
                 ;  0xBC, 0xFE, 0xCE, 0x3E, 0xE6, 0xEE, 0xFE, 0x86, 0xFB, 0x7B, 0x37, 0x3F,
                 ;  0x3F, 0x3F, 0x1F, 0x1F, 0x1E, 0x0E, 0x0E, 0x0E, 0x0E, 0x0C, 0x08, 0x00,
                 ;  0x00, 0x00, 0x00, 0x00, 0x00, 0x00, 0x00, 0x00, 0x00, 0x00, 0x00, 0x00,
                 ;  0x00, 0x00, 0x00, 0x00, 0x00, 0x00, 0x01, 0x03, 0x03, 0x07, 0x01, 0x0F,
                 ;  0x0F, 0x0B, 0x0D, 0x0E, 0x1E, 0x1F, 0x1F, 0x1F, 0x38, 0x07, 0x37, 0x75,
                 ;  0xDB, 0xBF, 0xE7, 0x81, 0x00, 0x00, 0x00, 0x00, 0x00, 0x81, 0xE7, 0xBF,
                 ;  0xDB, 0x75, 0x37, 0x07, 0x38, 0x1F, 0x1F, 0x1F, 0x1E, 0x0E, 0x0D, 0x0B,
                 ;  0x0F, 0x0F, 0x01, 0x07, 0x03, 0x03, 0x01, 0x00, 0x00, 0x00, 0x00, 0x00,
                 ;  0x00, 0x00, 0x00, 0x00, 0x00, 0x00, 0x00, 0x00, 0x00, 0x00, 0x00, 0x00,
                 ;  0x00, 0x00, 0x00, 0x00, 0x00, 0x00, 0x00, 0x00, 0x00, 0x00, 0x00, 0x00,
                 ;  0x00, 0x00, 0x00, 0x00, 0x00, 0x00, 0x00, 0x00, 0x00, 0x00, 0x00, 0x00,
                 ;  0x00, 0x00, 0x00, 0x00, 0x00, 0x00, 0x00, 0x00, 0x00, 0x00, 0x00, 0x00,
                 ;  0x01, 0x63, 0x73, 0x3F, 0xE7, 0xF7, 0x1E, 0xF7, 0xE7, 0x3F, 0x73, 0x63,
                 ;  0x01, 0x00, 0x00, 0x00, 0x00, 0x00, 0x00, 0x00, 0x00, 0x00, 0x00, 0x00,
                 ;  0x00, 0x00, 0x00, 0x00, 0x00, 0x00, 0x00, 0x00, 0x00, 0x00, 0x00, 0x00,
                 ;  0x00, 0x00, 0x00, 0x00, 0x00, 0x00, 0x00, 0x00, 0x00, 0x00, 0x00, 0x00};
                 ;
                 ;static const char BattFull[504] =
                 ;{ 0x00, 0x00, 0x00, 0x00, 0x00, 0x00, 0x00, 0x00, 0x00, 0x00, 0x00, 0x00,
                 ;  0x00, 0x00, 0x00, 0x00, 0x00, 0x00, 0x00, 0x00, 0x00, 0x00, 0x00, 0x00,
                 ;  0x00, 0x00, 0x00, 0x00, 0x00, 0x00, 0x00, 0x00, 0x00, 0x00, 0x00, 0x00,
                 ;  0x00, 0x00, 0x00, 0x00, 0x00, 0x00, 0x00, 0x00, 0x00, 0x00, 0x00, 0x00,
                 ;  0x00, 0x00, 0x00, 0x00, 0x00, 0x00, 0x00, 0x00, 0x00, 0x00, 0x00, 0x00,
                 ;  0x00, 0x00, 0x00, 0x00, 0x00, 0x00, 0x00, 0x00, 0x00, 0x7E, 0x42, 0x5A,
                 ;  0x5A, 0x5A, 0x5A, 0x5A, 0x5A, 0x5A, 0x5A, 0x5A, 0x5A, 0x42, 0x7E, 0x3C,
                 ;  0x00, 0x00, 0x00, 0x00, 0x00, 0x00, 0x00, 0x00, 0x00, 0x00, 0x00, 0x00,
                 ;  0x00, 0x00, 0x00, 0x00, 0x00, 0x00, 0x00, 0x00, 0x00, 0x00, 0x00, 0x00,
                 ;  0x00, 0x00, 0x00, 0x00, 0x00, 0x00, 0x00, 0x00, 0x00, 0x00, 0x00, 0x00,
                 ;  0x00, 0x00, 0x00, 0x00, 0x00, 0x00, 0x00, 0x00, 0x00, 0x00, 0x00, 0x00,
                 ;  0x00, 0x00, 0x00, 0x00, 0x00, 0x00, 0x00, 0x00, 0x00, 0x00, 0x00, 0x00,
                 ;  0x00, 0x00, 0x00, 0x00, 0x00, 0x00, 0x00, 0x00, 0x00, 0x00, 0x00, 0x00,
                 ;  0x00, 0x00, 0x00, 0x00, 0x00, 0x00, 0x00, 0x00, 0x00, 0x00, 0x00, 0x00,
                 ;  0x00, 0x00, 0x00, 0x00, 0x00, 0x00, 0x00, 0x00, 0x00, 0x00, 0x00, 0x00,
                 ;  0x00, 0x00, 0x00, 0x00, 0x00, 0x00, 0x00, 0x00, 0x00, 0x00, 0x00, 0x00,
                 ;  0x00, 0x00, 0x00, 0x00, 0x00, 0x00, 0x00, 0x00, 0x00, 0x00, 0x00, 0x00,
                 ;  0x00, 0x00, 0x00, 0x00, 0x00, 0x00, 0x00, 0x00, 0x00, 0x00, 0x00, 0x00,
                 ;  0x00, 0x00, 0x00, 0x00, 0x00, 0x00, 0x00, 0x00, 0x00, 0x00, 0x00, 0x00,
                 ;  0x00, 0x00, 0x00, 0x00, 0x00, 0x00, 0x00, 0x00, 0x00, 0x00, 0x00, 0x00,
                 ;  0x00, 0x00, 0x00, 0x00, 0x00, 0x00, 0x00, 0x00, 0x00, 0x00, 0x00, 0x00,
                 ;  0x00, 0x00, 0x00, 0x00, 0x00, 0x00, 0x00, 0x00, 0x00, 0x00, 0x00, 0x00,
                 ;  0x00, 0x00, 0x00, 0x00, 0x00, 0x00, 0x00, 0x00, 0x00, 0x00, 0x00, 0x00,
                 ;  0x00, 0x00, 0x00, 0x00, 0x00, 0x00, 0x00, 0x00, 0x00, 0x00, 0x00, 0x00,
                 ;  0x00, 0x00, 0x00, 0x00, 0x00, 0x00, 0x00, 0x00, 0x00, 0x00, 0x00, 0x00,
                 ;  0x00, 0x00, 0x00, 0x00, 0x00, 0x00, 0x00, 0x00, 0x00, 0x00, 0x00, 0x00,
                 ;  0x00, 0x00, 0x00, 0x00, 0x00, 0x00, 0x00, 0x00, 0x00, 0x00, 0x00, 0x00,
                 ;  0x00, 0x00, 0x00, 0x00, 0x00, 0x00, 0x00, 0x00, 0x00, 0x00, 0x00, 0x00,
                 ;  0x00, 0x00, 0x00, 0x00, 0x00, 0x00, 0x00, 0x00, 0x00, 0x00, 0x00, 0x00,
                 ;  0x00, 0x00, 0x00, 0x00, 0x00, 0x00, 0x00, 0x00, 0x00, 0x00, 0x00, 0x00,
                 ;  0x00, 0x00, 0x00, 0x00, 0x00, 0x00, 0x00, 0x00, 0x00, 0x00, 0x00, 0x00,
                 ;  0x00, 0x00, 0x00, 0x00, 0x00, 0x00, 0x00, 0x00, 0x00, 0x00, 0x00, 0x00,
                 ;  0x00, 0x00, 0x00, 0x00, 0x00, 0x00, 0x00, 0x00, 0x00, 0x00, 0x00, 0x00,
                 ;  0x00, 0x00, 0x00, 0x00, 0x00, 0x00, 0x00, 0x00, 0x00, 0x00, 0x00, 0x00,
                 ;  0x00, 0x00, 0x00, 0x00, 0x00, 0x00, 0x00, 0x00, 0x00, 0x00, 0x00, 0x00,
                 ;  0x00, 0x00, 0x00, 0x00, 0x00, 0x00, 0x00, 0x00, 0x00, 0x00, 0x00, 0x00,
                 ;  0x00, 0x00, 0x00, 0x00, 0x00, 0x00, 0x00, 0x00, 0x00, 0x00, 0x00, 0x00,
                 ;  0x00, 0x00, 0x00, 0x00, 0x00, 0x00, 0x00, 0x00, 0x00, 0x00, 0x00, 0x00,
                 ;  0x00, 0x00, 0x00, 0x00, 0x00, 0x00, 0x00, 0x00, 0x00, 0x00, 0x00, 0x00,
                 ;  0x00, 0x00, 0x00, 0x00, 0x00, 0x00, 0x00, 0x00, 0x00, 0x00, 0x00, 0x00,
                 ;  0x00, 0x00, 0x00, 0x00, 0x00, 0x00, 0x00, 0x00, 0x00, 0x00, 0x00, 0x00,
                 ;  0x00, 0x00, 0x00, 0x00, 0x00, 0x00, 0x00, 0x00, 0x00, 0x00, 0x00, 0x00};
                 ;
                 ;
                 ;  static const char bell[504] =
                 ;{ 0x00, 0x00, 0x00, 0x00, 0x00, 0x00, 0x00, 0x00, 0x00, 0x00, 0x00, 0x00,
                 ;  0x00, 0x80, 0xC0, 0xC0, 0xE0, 0xE0, 0xE0, 0xF0, 0xF0, 0xF0, 0xF8, 0xF8,
                 ;  0xF8, 0x78, 0x7C, 0x7C, 0x7C, 0x7E, 0x3E, 0x3E, 0x3E, 0x3E, 0x3E, 0x1E,
                 ;  0x1E, 0x1E, 0x1E, 0x1E, 0x1E, 0x1E, 0x1E, 0x1E, 0x1E, 0x1E, 0x1E, 0x1E,
                 ;  0x3E, 0x3E, 0x3E, 0x3E, 0x3E, 0x7E, 0x7C, 0x7C, 0x7C, 0xF8, 0xF8, 0xF8,
                 ;  0xF8, 0xF0, 0xF0, 0xF0, 0xE0, 0xE0, 0xC0, 0xC0, 0x80, 0x00, 0x00, 0x00,
                 ;  0x00, 0x00, 0x00, 0x00, 0x00, 0x00, 0x00, 0x00, 0x00, 0x00, 0x00, 0x00,
                 ;  0x00, 0x00, 0x00, 0x00, 0xC0, 0xE0, 0xF0, 0xF0, 0xF8, 0xFC, 0xFE, 0xFF,
                 ;  0x7F, 0x7F, 0x1F, 0x1F, 0x0F, 0x07, 0x07, 0x03, 0x01, 0x01, 0x01, 0x00,
                 ;  0xC0, 0xE0, 0xE0, 0xE0, 0xF0, 0xF0, 0xF0, 0xF0, 0xF0, 0xF0, 0xF0, 0xF0,
                 ;  0xFE, 0xFE, 0xFE, 0xFE, 0xFE, 0xFE, 0xFE, 0xFE, 0xFE, 0xFE, 0xF0, 0xF0,
                 ;  0xF0, 0xF0, 0xF0, 0xF0, 0xF0, 0xF0, 0xF0, 0xF0, 0xE0, 0xE0, 0xC0, 0x00,
                 ;  0x01, 0x03, 0x03, 0x07, 0x07, 0x0F, 0x1F, 0x1F, 0x3F, 0x3F, 0xFF, 0xFE,
                 ;  0xFC, 0xFC, 0xF8, 0xF0, 0xE0, 0xC0, 0x00, 0x00, 0x00, 0x00, 0x00, 0x00,
                 ;  0x00, 0xC0, 0xF8, 0xFF, 0xFF, 0xFF, 0xFF, 0xFF, 0xFF, 0x0F, 0x01, 0x01,
                 ;  0x00, 0x00, 0x00, 0x00, 0x00, 0x00, 0x00, 0x00, 0x00, 0x00, 0x00, 0xFE,
                 ;  0xFF, 0xFF, 0xFF, 0xFF, 0xFF, 0xFF, 0x0F, 0x03, 0x01, 0x01, 0x01, 0x01,
                 ;  0x01, 0x01, 0x01, 0x01, 0x01, 0x01, 0x01, 0x01, 0x01, 0x01, 0x01, 0x01,
                 ;  0x01, 0x01, 0x03, 0x0F, 0xFF, 0xFF, 0xFF, 0xFF, 0xFF, 0xFF, 0xFF, 0xFE,
                 ;  0x00, 0x00, 0x00, 0x00, 0x00, 0x00, 0x00, 0x00, 0x00, 0x00, 0x00, 0x01,
                 ;  0x07, 0x1F, 0xFF, 0xFF, 0xFF, 0xFF, 0xFF, 0xFC, 0xF8, 0xC0, 0x00, 0x00,
                 ;  0x00, 0x07, 0x1F, 0xFF, 0xFF, 0xFF, 0xFF, 0xFF, 0xFF, 0xF0, 0x80, 0x80,
                 ;  0x00, 0x00, 0x00, 0x00, 0xFC, 0xFC, 0xFC, 0xFC, 0xFC, 0xFE, 0xFF, 0xFF,
                 ;  0xFF, 0xFF, 0xEF, 0xE7, 0xE3, 0xE0, 0xE0, 0xE0, 0xE0, 0xE0, 0xE0, 0xE0,
                 ;  0xE0, 0xE0, 0xE0, 0xE0, 0xE0, 0xE0, 0xE0, 0xE0, 0xE0, 0xE0, 0xE0, 0xE0,
                 ;  0xE0, 0xE0, 0xE0, 0xE0, 0xE0, 0xE3, 0xE7, 0xEF, 0xFF, 0xFF, 0xFF, 0xFF,
                 ;  0xFF, 0xFE, 0xFC, 0xFC, 0xFC, 0xFC, 0x00, 0x00, 0x00, 0x00, 0x00, 0x80,
                 ;  0xE0, 0xF8, 0xFF, 0xFF, 0xFF, 0xFF, 0xFF, 0x7F, 0x3F, 0x07, 0x00, 0x00,
                 ;  0x00, 0x00, 0x00, 0x00, 0x03, 0x07, 0x0F, 0x1F, 0x1F, 0x3F, 0x7F, 0xFF,
                 ;  0xFE, 0xFE, 0xF8, 0xF8, 0xF1, 0xE1, 0xE1, 0xC1, 0x81, 0x81, 0x01, 0x01,
                 ;  0x01, 0x01, 0x01, 0x01, 0x01, 0x01, 0x01, 0x01, 0x01, 0x01, 0x01, 0x01,
                 ;  0x0F, 0x0F, 0x0F, 0x0F, 0x0F, 0x0F, 0x0F, 0x0F, 0x0F, 0x0F, 0x01, 0x01,
                 ;  0x01, 0x01, 0x01, 0x01, 0x01, 0x01, 0x01, 0x01, 0x01, 0x01, 0x01, 0x01,
                 ;  0x81, 0xC1, 0xC1, 0xC1, 0xE1, 0xF1, 0xF0, 0xF8, 0xFC, 0xFC, 0xFF, 0xFF,
                 ;  0x7F, 0x3F, 0x1F, 0x0F, 0x07, 0x03, 0x01, 0x00, 0x00, 0x00, 0x00, 0x00,
                 ;  0x00, 0x00, 0x00, 0x00, 0x00, 0x00, 0x00, 0x00, 0x00, 0x00, 0x00, 0x00,
                 ;  0x00, 0x01, 0x03, 0x03, 0x07, 0x07, 0x07, 0x0F, 0x0F, 0x1F, 0x1F, 0x1F,
                 ;  0x3F, 0x3F, 0x3E, 0x3E, 0x3E, 0x3C, 0x7C, 0x7C, 0x7C, 0x7C, 0x7C, 0x7C,
                 ;  0x7C, 0x78, 0xF8, 0xF8, 0xF8, 0xF8, 0xF8, 0xF8, 0xF8, 0xF8, 0x7C, 0x7C,
                 ;  0x7C, 0x7C, 0x7C, 0x7C, 0x7C, 0x3C, 0x3E, 0x3E, 0x3E, 0x3F, 0x1F, 0x1F,
                 ;  0x1F, 0x1F, 0x0F, 0x0F, 0x07, 0x07, 0x03, 0x03, 0x01, 0x01, 0x00, 0x00,
                 ;  0x00, 0x00, 0x00, 0x00, 0x00, 0x00, 0x00, 0x00, 0x00, 0x00, 0x00, 0x00};
                 ;
                 ;
                 ;
                 ;
                 ;flash unsigned char Batt0[16] = {0x7F,0x41,0x5D,0x41,0x41,0x41,0x41,0x41,0x41,0x41,0x41,0x41,0x41,0x41,0x7F,0x3E};	 //   
                 ;flash unsigned char Batt1[16] = {0x7F,0x41,0x5D,0x5D,0x41,0x41,0x41,0x41,0x41,0x41,0x41,0x41,0x41,0x41,0x7F,0x3E};
                 ;flash unsigned char Batt2[16] = {0x7F,0x41,0x5D,0x5D,0x5D,0x41,0x41,0x41,0x41,0x41,0x41,0x41,0x41,0x41,0x7F,0x3E};
                 ;flash unsigned char Batt3[16] = {0x7F,0x41,0x5D,0x5D,0x5D,0x5D,0x41,0x41,0x41,0x41,0x41,0x41,0x41,0x41,0x7F,0x3E};
                 ;flash unsigned char Batt4[16] = {0x7F,0x41,0x5D,0x5D,0x5D,0x5D,0x5D,0x41,0x41,0x41,0x41,0x41,0x41,0x41,0x7F,0x3E};
                 ;flash unsigned char Batt5[16] = {0x7F,0x41,0x5D,0x5D,0x5D,0x5D,0x5D,0x5D,0x41,0x41,0x41,0x41,0x41,0x41,0x7F,0x3E};
                 ;flash unsigned char Batt6[16] = {0x7F,0x41,0x5D,0x5D,0x5D,0x5D,0x5D,0x5D,0x5D,0x41,0x41,0x41,0x41,0x41,0x7F,0x3E};
                 ;flash unsigned char Batt7[16] = {0x7F,0x41,0x5D,0x5D,0x5D,0x5D,0x5D,0x5D,0x5D,0x5D,0x41,0x41,0x41,0x41,0x7F,0x3E};
                 ;flash unsigned char Batt8[16] = {0x7F,0x41,0x5D,0x5D,0x5D,0x5D,0x5D,0x5D,0x5D,0x5D,0x5D,0x41,0x41,0x41,0x7F,0x3E};
                 ;flash unsigned char Batt9[16] = {0x7F,0x41,0x5D,0x5D,0x5D,0x5D,0x5D,0x5D,0x5D,0x5D,0x5D,0x5D,0x41,0x41,0x7F,0x3E};
                 ;flash unsigned char Batt10[16] = {0x7F,0x41,0x5D,0x5D,0x5D,0x5D,0x5D,0x5D,0x5D,0x5D,0x5D,0x5D,0x5D,0x41,0x7F,0x3E};
                 ;flash unsigned char Batt_done[16] = {0x7F,0x41,0x55,0x49,0x55,0x49,0x55,0x49,0x55,0x49,0x55,0x49,0x55,0x41,0x7F,0x3E};
                 ;
                 ;// flash unsigned char Card[7] = {0x7C,0x42,0x5D,0x55,0x49,0x41,0x7F};
                 ;flash unsigned char Card[7] = {0x7C,0x42,0x41,0x41,0x41,0x41,0x7F};	  //  
                 ;flash unsigned char CardFail[7] = {0x7C,0x62,0x55,0x49,0x55,0x63,0x7F};  //   -  
                 ;flash unsigned char CardFull[7] = {0x7C,0x7E,0x7F,0x7F,0x7F,0x7F,0x7F};  //  
                 ;
                 ;
                 ;//flash unsigned char Power[14] = {0x14,0x14,0x3E,0x22,0x22,0x22,0x1C,0x08,0x04,0x04,0x08,0x10,0x10,0x08};	//   
                 ;
                 ;//flash unsigned char USB[12] = {0x1E,0x20,0x20,0x1E,0x00,0x24,0x2A,0x12,0x00,0x3E,0x2A,0x14};	 // USB
                 ;
                 ;flash unsigned char Bell[9] = {0x20,0x50,0x4E,0x61,0x61,0x61,0x4E,0x50,0x20};                  //   
                 ;
                 ;flash unsigned char Radar[8] = {0x03,0x44,0x68,0x78,0x54,0x22,0x20,0x20};                       //  GPS
                 ;flash unsigned char RadarLocate[8] = {0x03,0x44,0x68,0x79,0x54,0x22,0x28,0x25};                 //  GPS  
                 ;
                 ;flash unsigned char Level0[2] = {0x60,0x60};                                                    //    
                 ;flash unsigned char Level1[4] = {0x60,0x60,0x70,0x70};
                 ;flash unsigned char Level2[6] = {0x60,0x60,0x70,0x70,0x78,0x78};
                 ;flash unsigned char Level3[8] = {0x60,0x60,0x70,0x70,0x78,0x78,0x7C,0x7C};
                 ;flash unsigned char Level4[10] = {0x60,0x60,0x70,0x70,0x78,0x78,0x7C,0x7C,0x7E,0x7E};
                 ;flash unsigned char Level5[12] = {0x60,0x60,0x70,0x70,0x78,0x78,0x7C,0x7C,0x7E,0x7E,0x7F,0x7F};
                 ;//***************************************************************************
                 ;//
                 ;//  Author(s)...: Pashgan    http://ChipEnable.Ru
                 ;//
                 ;//
                 ;//  Compiler....: CodeVision 2.04
                 ;//
                 ;//  Description.: USART/UART.   
                 ;//
                 ;//  Data........: 3.01.10
                 ;//
                 ;//***************************************************************************
                 ;#include "usart.h"
                 ;
                 ;
                 ;#warning   +   Usart_rxCount!
                 ;/*
                 ;  struct {
                 ;	u08 buff[TX_BUFFER_SIZE];
                 ;	u08 head;
                 ;	u08 tail;
                 ;} TX_buff;
                 ;
                 ;struct {
                 ;	u08 buff[RX_BUFFER_SIZE];
                 ;	u08 head;
                 ;	u08 tail;
                 ;} RX_buff;
                 ;*/
                 ;// 
                 ;static volatile char Usart0_TX_buf[SIZE_BUF_TX];
                 ;static volatile uint16_t Usart0_txBufTail = 0;
                 ;static volatile uint16_t Usart0_txBufHead = 0;
                 ;//static volatile uint16_t Usart0_txCount = 0;
                 ;
                 ;static volatile char Usart1_TX_buf[SIZE_BUF_TX];
                 ;static volatile uint16_t Usart1_txBufTail = 0;
                 ;static volatile uint16_t Usart1_txBufHead = 0;
                 ;//static volatile uint16_t Usart1_txCount = 0;
                 ; #warning  Usart0_txCount not used
                 ;
                 ;
                 ;// 
                 ;static volatile char Usart0_RX_buf[SIZE_BUF_RX];
                 ;static volatile uint16_t Usart0_rxBufTail = 0;
                 ;static volatile uint16_t Usart0_rxBufHead = 0;
                 ;static volatile uint16_t Usart0_rxCount = 0;
                 ;
                 ;static volatile char Usart1_RX_buf[SIZE_BUF_RX];
                 ;static volatile uint16_t Usart1_rxBufTail = 0;
                 ;static volatile uint16_t Usart1_rxBufHead = 0;
                 ;static volatile uint16_t Usart1_rxCount = 0;
                 ;
                 ;#ifndef F_CPU
                 ;#error "F_CPU is not defined"
                 ;#endif
                 ;
                 ;void UartTxBufOvf_Handler(void){ //    UART
                 _UartTxBufOvf_Handler:
                 ;PORTD.6=1;
000652 9a96      	SBI  0x12,6
                 ;}
000653 9508      	RET
                 ;
                 ;
                 ;uint16_t Calk_safe_baud(uint8_t mode, uint16_t input_baud){
                 ; uint8_t max_total_err = 52; // ,   -  . 52  2.1%
                 ;
                 ; uint32_t tmp0 = 0;
                 ; uint16_t tmp1 = 0;
                 ;
                 ; if (mode == USART_NORMAL){tmp0 = 16UL*input_baud;}
                 ;	mode -> Y+10
                 ;	input_baud -> Y+8
                 ;	max_total_err -> R17
                 ;	tmp0 -> Y+4
                 ;	tmp1 -> R18,R19
                 ; else {tmp0 = 8UL*input_baud;}
                 ;
                 ; tmp1 = (F_CPU/100)/tmp0;   //{ubrrValue = F_CPU/(16UL*baudRate) - 1;}
                 ; tmp1 = tmp1*tmp0;
                 ; tmp1 = ((F_CPU/100) - tmp1);
                 ; tmp1 = tmp1>>5; // /32
                 ; if(tmp1 > max_total_err){tmp1 = 48;} //     (>2.1%)   4800baud (     )
                 ; else {tmp1 = input_baud;} //  ,   
                 ;return tmp1;
                 ;}
                 ;
                 ;
                 ; void USART_Init (uint8_t sel, uint8_t mode, uint16_t baudRate) // usart`a
                 ;{
                 _USART_Init:
                 ;  uint16_t ubrrValue;
                 ;__disable_interrupts();
000654 931a      	ST   -Y,R17
000655 930a      	ST   -Y,R16
                 ;	sel -> Y+5
                 ;	mode -> Y+4
                 ;	baudRate -> Y+2
                 ;	ubrrValue -> R16,R17
000656 b7ef      	IN   R30,0x3F
000657 93e0 02fe 	STS  _saved_state,R30
000659 94f8      	cli
                 ;
                 ;#ifdef UART_BAUD-ERR-CONTROL_EN
                 ;baudRate = Calk_safe_baud(mode, baudRate);//      (  F_CPU)
                 ;#endif
                 ;baudRate = baudRate * 100;
00065a 81aa      	LDD  R26,Y+2
00065b 81bb      	LDD  R27,Y+2+1
00065c e6e4      	LDI  R30,LOW(100)
00065d 940e 15cb 	CALL __MULB1W2U
00065f 83ea      	STD  Y+2,R30
000660 83fb      	STD  Y+2+1,R31
                 ;if(sel==USART_0)
000661 81ed      	LDD  R30,Y+5
000662 30e0      	CPI  R30,0
000663 f571      	BRNE _0xA3
                 ;{
                 ;  Usart0_txBufTail = 0;  Usart0_txBufHead = 0;
000664 e0e0      	LDI  R30,LOW(0)
000665 93e0 0921 	STS  _Usart0_txBufTail_G000,R30
000667 93e0 0922 	STS  _Usart0_txBufTail_G000+1,R30
000669 940e 12da 	CALL SUBOPT_0x2
                 ;  Usart0_rxBufTail = 0;  Usart0_rxBufHead = 0;
00066b 93e0 0c29 	STS  _Usart0_rxBufTail_G000,R30
00066d 93e0 0c2a 	STS  _Usart0_rxBufTail_G000+1,R30
00066f e0e0      	LDI  R30,LOW(0)
000670 93e0 0c2b 	STS  _Usart0_rxBufHead_G000,R30
000672 93e0 0c2c 	STS  _Usart0_rxBufHead_G000+1,R30
                 ;  Usart0_rxCount = 0;
000674 93e0 0c2d 	STS  _Usart0_rxCount_G000,R30
000676 93e0 0c2e 	STS  _Usart0_rxCount_G000+1,R30
                 ;  UCSR0A = 0; // USART0 disabled
000678 b9eb      	OUT  0xB,R30
                 ;  UCSR0B = 0;
000679 b9ea      	OUT  0xA,R30
                 ;  UCSR0C = 0;
00067a 93e0 0095 	STS  149,R30
                 ;
                 ;    if (mode == USART_NORMAL){ubrrValue = F_CPU/(16UL*baudRate) - 1;}
00067c 81ec      	LDD  R30,Y+4
00067d 30e0      	CPI  R30,0
00067e f429      	BRNE _0xA4
00067f 940e 12e0 	CALL SUBOPT_0x3
000681 940e 12e5 	CALL SUBOPT_0x4
                 ;    else                     {ubrrValue = F_CPU/(8UL*baudRate) - 1; UCSR0A = (1<<U2X0);}//doubles speed
000683 c005      	RJMP _0xA5
                 _0xA4:
000684 940e 12e0 	CALL SUBOPT_0x3
000686 940e 12f7 	CALL SUBOPT_0x5
000688 b9eb      	OUT  0xB,R30
                 _0xA5:
                 ;
                 ;  // Communication Parameters: 8 Data, 1 Stop, No Parity
                 ;  // USART1 Receiver: On //Transmitter: On //Mode: Asynchronous
                 ;  UBRR0H = (uint8_t)(ubrrValue >> 8);
000689 9310 0090 	STS  144,R17
                 ;  UBRR0L = (uint8_t)ubrrValue;
00068b b909      	OUT  0x9,R16
                 ;  UCSR0B = (1<<RXCIE0)|(1<<RXEN0)|(1<<TXEN0); //.     ,  ,  .
00068c e9e8      	LDI  R30,LOW(152)
00068d b9ea      	OUT  0xA,R30
                 ;  UCSR0C = (1<<UCSZ01)|(1<<UCSZ00); //  8 
00068e e0e6      	LDI  R30,LOW(6)
00068f 93e0 0095 	STS  149,R30
                 ;}
                 ;else
000691 c032      	RJMP _0xA6
                 _0xA3:
                 ;{
                 ;  Usart1_txBufTail = 0;  Usart1_txBufHead = 0;
000692 e0e0      	LDI  R30,LOW(0)
000693 93e0 0b25 	STS  _Usart1_txBufTail_G000,R30
000695 93e0 0b26 	STS  _Usart1_txBufTail_G000+1,R30
000697 940e 130a 	CALL SUBOPT_0x6
                 ;  Usart1_rxBufTail = 0;  Usart1_rxBufHead = 0;
000699 93e0 0d2f 	STS  _Usart1_rxBufTail_G000,R30
00069b 93e0 0d30 	STS  _Usart1_rxBufTail_G000+1,R30
00069d e0e0      	LDI  R30,LOW(0)
00069e 93e0 0d31 	STS  _Usart1_rxBufHead_G000,R30
0006a0 93e0 0d32 	STS  _Usart1_rxBufHead_G000+1,R30
                 ;  Usart1_rxCount = 0;
0006a2 93e0 0d33 	STS  _Usart1_rxCount_G000,R30
0006a4 93e0 0d34 	STS  _Usart1_rxCount_G000+1,R30
                 ;  UCSR1A = 0;  // USART1 disabled
0006a6 93e0 009b 	STS  155,R30
                 ;  UCSR1B = 0;
0006a8 93e0 009a 	STS  154,R30
                 ;  UCSR1C = 0;
0006aa 93e0 009d 	STS  157,R30
                 ;
                 ;    if (mode == USART_NORMAL){ubrrValue = F_CPU/(16UL*baudRate) - 1;}
0006ac 81ec      	LDD  R30,Y+4
0006ad 30e0      	CPI  R30,0
0006ae f429      	BRNE _0xA7
0006af 940e 12e0 	CALL SUBOPT_0x3
0006b1 940e 12e5 	CALL SUBOPT_0x4
                 ;    else                     {ubrrValue = F_CPU/(8UL*baudRate) - 1; UCSR1A = (1<<U2X1);}//doubles speed
0006b3 c006      	RJMP _0xA8
                 _0xA7:
0006b4 940e 12e0 	CALL SUBOPT_0x3
0006b6 940e 12f7 	CALL SUBOPT_0x5
0006b8 93e0 009b 	STS  155,R30
                 _0xA8:
                 ;
                 ;  // Communication Parameters: 8 Data, 1 Stop, No Parity
                 ;  // USART1 Receiver: On //Transmitter: On //Mode: Asynchronous
                 ;  UBRR1H = (uint8_t)(ubrrValue >> 8);
0006ba 9310 0098 	STS  152,R17
                 ;  UBRR1L = (uint8_t)ubrrValue;
0006bc 9300 0099 	STS  153,R16
                 ;  UCSR1B = (1<<RXCIE1)|(1<<RXEN1)|(1<<TXEN1); //.     ,  ,  .
0006be e9e8      	LDI  R30,LOW(152)
0006bf 93e0 009a 	STS  154,R30
                 ;  UCSR1C = (1<<UCSZ11)|(1<<UCSZ10); //  8 
0006c1 e0e6      	LDI  R30,LOW(6)
0006c2 93e0 009d 	STS  157,R30
                 ;}
                 _0xA6:
                 ;__restore_interrupts();
0006c4 b7ef      	IN   R30,0x3F
0006c5 91a0 02fe 	LDS  R26,_saved_state
0006c7 2bea      	OR   R30,R26
0006c8 bfef      	OUT  0x3F,R30
                 ;}
0006c9 8119      	LDD  R17,Y+1
0006ca 8108      	LDD  R16,Y+0
0006cb 9626      	ADIW R28,6
0006cc 9508      	RET
                 ;
                 ;
                 ;//______________________________________________________________________________
                 ; /*
                 ;unsigned char USART_Get_txCount(void) //    
                 ;{
                 ;  return Usart_txCount;
                 ;}
                 ;*/
                 ;void USART_FlushTxBuf(uint8_t sel) //""  
                 ;{
                 ;__disable_interrupts();
                 ;	sel -> Y+0
                 ;TX_CNT=0;
                 ;
                 ; switch (sel)
                 ; {
                 ;   case USART_0:
                 ;Usart_0_flush:
                 ;  Usart0_txBufTail = 0;
                 ;  Usart0_txBufHead = 0;
                 ;    //txCount = 0; //not used
                 ;   break;
                 ;   case USART_1:
                 ;  Usart1_txBufTail = 0;
                 ;  Usart1_txBufHead = 0;
                 ;   break;
                 ;     default:
                 ; goto Usart_0_flush;
                 ;   break;
                 ;}
                 ;__restore_interrupts();
                 ;}
                 ;
                 ;
                 ;//OPTIMISED!
                 ;//   ,   
                 ;
                 ;void USART_PutChar(uint8_t sel, unsigned char symbol) //   ,   
                 ;{
                 _USART_PutChar:
                 ; uint16_t Tmp_0 = Usart0_txBufHead;
                 ; uint16_t Tmp_1 = Usart1_txBufHead;
                 ;
                 ; switch (sel)
0006cd 940e 16c5 	CALL __SAVELOCR4
                 ;	sel -> Y+5
                 ;	symbol -> Y+4
                 ;	Tmp_0 -> R16,R17
                 ;	Tmp_1 -> R18,R19
                +
0006cf 9100 0923+LDS R16 , 0 + ( _Usart0_txBufHead_G000 )
0006d1 9110 0924+LDS R17 , 0 + ( _Usart0_txBufHead_G000 ) + 1
                 	__GETWRMN 16,17,0,_Usart0_txBufHead_G000
                +
0006d3 9120 0b27+LDS R18 , 0 + ( _Usart1_txBufHead_G000 )
0006d5 9130 0b28+LDS R19 , 0 + ( _Usart1_txBufHead_G000 ) + 1
                 	__GETWRMN 18,19,0,_Usart1_txBufHead_G000
0006d7 81ed      	LDD  R30,Y+5
                 ; {
                 ;   case USART_0:
0006d8 30e0      	CPI  R30,0
0006d9 f4f9      	BRNE _0xB6
                 ; Usart_0:
                 _0xB7:
                 ;       // if(((UCSR0A & (1<<UDRE0)) == 1)) {UDR0 = symbol;} //  usart  //((UCSRA & (1<<UDRE)) == 1) && (Usart0_txCount == 0)
                 ;       //  else {                                                           //     UDR
                 ;               if((uint16_t)(Tmp_0 - Usart0_txBufTail ) <= (uint16_t) SIZE_BUF_TX){ // buffer full, wait until symbol transmitted in interrupt
0006da 91a0 0921 	LDS  R26,_Usart0_txBufTail_G000
0006dc 91b0 0922 	LDS  R27,_Usart0_txBufTail_G000+1
0006de 01f8      	MOVW R30,R16
0006df 1bea      	SUB  R30,R26
0006e0 0bfb      	SBC  R31,R27
0006e1 30e1      	CPI  R30,LOW(0x201)
0006e2 e0a2      	LDI  R26,HIGH(0x201)
0006e3 07fa      	CPC  R31,R26
0006e4 f490      	BRSH _0xB8
                 ;               Usart0_TX_buf[Tmp_0 & (SIZE_BUF_TX - 1)] = symbol;
0006e5 01f8      	MOVW R30,R16
0006e6 70f1      	ANDI R31,HIGH(0x1FF)
0006e7 5def      	SUBI R30,LOW(-_Usart0_TX_buf_G000)
0006e8 4ff8      	SBCI R31,HIGH(-_Usart0_TX_buf_G000)
0006e9 81ac      	LDD  R26,Y+4
0006ea 83a0      	STD  Z+0,R26
                 ;               ++Tmp_0;
                +
0006eb 5f0f     +SUBI R16 , LOW ( - 1 )
0006ec 4f1f     +SBCI R17 , HIGH ( - 1 )
                 	__ADDWRN 16,17,1
                 ;               __disable_interrupts();
0006ed b7ef      	IN   R30,0x3F
0006ee 93e0 02fe 	STS  _saved_state,R30
0006f0 94f8      	cli
                 ;               Usart0_txBufHead = Tmp_0;
                +
0006f1 9300 0923+STS _Usart0_txBufHead_G000 + ( 0 ) , R16
0006f3 9310 0924+STS _Usart0_txBufHead_G000 + ( 0 ) + 1 , R17
                 	__PUTWMRN _Usart0_txBufHead_G000,0,16,17
                 ;               UCSR0B |= (1 << UDRIE0);
0006f5 9a55      	SBI  0xA,5
                 ;               } else {UartTxBufOvf_Handler();}
0006f6 c001      	RJMP _0xBC
                 _0xB8:
0006f7 df5a      	RCALL _UartTxBufOvf_Handler
                 _0xBC:
                 ;         //    }
                 ;   break;
0006f8 c026      	RJMP _0xB5
                 ;   case USART_1:
                 _0xB6:
0006f9 30e1      	CPI  R30,LOW(0x1)
0006fa f519      	BRNE _0xC3
                 ;      //  if(((UCSR1A & (1<<UDRE1)) == 1)) {UDR1 = symbol;} //  usart  //((UCSRA & (1<<UDRE)) == 1) && (Usart0_txCount == 0)
                 ;       //  else {                                                           //     UDR
                 ;               if((uint16_t)(Tmp_1 - Usart1_txBufTail) <= (uint16_t) SIZE_BUF_TX){ // buffer full, wait until symbol transmitted in interrupt
0006fb 91a0 0b25 	LDS  R26,_Usart1_txBufTail_G000
0006fd 91b0 0b26 	LDS  R27,_Usart1_txBufTail_G000+1
0006ff 01f9      	MOVW R30,R18
000700 1bea      	SUB  R30,R26
000701 0bfb      	SBC  R31,R27
000702 30e1      	CPI  R30,LOW(0x201)
000703 e0a2      	LDI  R26,HIGH(0x201)
000704 07fa      	CPC  R31,R26
000705 f4b0      	BRSH _0xBE
                 ;               Usart1_TX_buf[Tmp_1 & (SIZE_BUF_TX - 1)] = symbol;
000706 01f9      	MOVW R30,R18
000707 70f1      	ANDI R31,HIGH(0x1FF)
000708 5deb      	SUBI R30,LOW(-_Usart1_TX_buf_G000)
000709 4ff6      	SBCI R31,HIGH(-_Usart1_TX_buf_G000)
00070a 81ac      	LDD  R26,Y+4
00070b 83a0      	STD  Z+0,R26
                 ;               ++Tmp_1;
                +
00070c 5f2f     +SUBI R18 , LOW ( - 1 )
00070d 4f3f     +SBCI R19 , HIGH ( - 1 )
                 	__ADDWRN 18,19,1
                 ;               __disable_interrupts();
00070e b7ef      	IN   R30,0x3F
00070f 93e0 02fe 	STS  _saved_state,R30
000711 94f8      	cli
                 ;               Usart1_txBufHead = Tmp_1;
                +
000712 9320 0b27+STS _Usart1_txBufHead_G000 + ( 0 ) , R18
000714 9330 0b28+STS _Usart1_txBufHead_G000 + ( 0 ) + 1 , R19
                 	__PUTWMRN _Usart1_txBufHead_G000,0,18,19
                 ;               UCSR1B |= (1 << UDRIE1);
000716 91e0 009a 	LDS  R30,154
000718 62e0      	ORI  R30,0x20
000719 93e0 009a 	STS  154,R30
                 ;               }else {UartTxBufOvf_Handler();}
00071b c001      	RJMP _0xC2
                 _0xBE:
00071c df35      	RCALL _UartTxBufOvf_Handler
                 _0xC2:
                 ;          //   }
                 ;   break;
00071d c001      	RJMP _0xB5
                 ;     default:
                 _0xC3:
                 ;     goto Usart_0;
00071e cfbb      	RJMP _0xB7
                 ;     break;
                 ; }
                 _0xB5:
                 ; __restore_interrupts();
00071f b7ef      	IN   R30,0x3F
000720 91a0 02fe 	LDS  R26,_saved_state
000722 2bea      	OR   R30,R26
000723 bfef      	OUT  0x3F,R30
                 ;}
000724 940e 16cc 	CALL __LOADLOCR4
000726 c524      	RJMP _0x20C0007
                 ;
                 ;
                 ;
                 ;void USART_SendStr(uint8_t sel, unsigned char * data)//    usart`
                 ;{
                 _USART_SendStr:
                 ; // unsigned char symbol;
                 ;  while(*data)
                 ;	sel -> Y+2
                 ;	*data -> Y+0
                 _0xC4:
000727 81a8      	LD   R26,Y
000728 81b9      	LDD  R27,Y+1
000729 91ec      	LD   R30,X
00072a 30e0      	CPI  R30,0
00072b f051      	BREQ _0xC6
                 ;  {
                 ;    //symbol = *data++;// USART_PutChar(sel,symbol);
                 ;   USART_PutChar(sel, *data++);//Optimized
00072c 81ea      	LDD  R30,Y+2
00072d 93ea      	ST   -Y,R30
00072e 81a9      	LDD  R26,Y+1
00072f 81ba      	LDD  R27,Y+1+1
000730 91ed      	LD   R30,X+
000731 83a9      	STD  Y+1,R26
000732 83ba      	STD  Y+1+1,R27
000733 93ea      	ST   -Y,R30
000734 df98      	RCALL _USART_PutChar
                 ;  }
000735 cff1      	RJMP _0xC4
                 _0xC6:
                 ;}
000736 c1d3      	RJMP _0x20C0009
                 ;
                 ;void USART_SendStrFl(uint8_t sel, unsigned char __flash * data) //      usart`
                 ;{
                 _USART_SendStrFl:
                 ; // unsigned char symbol;
                 ;  while(*data)
                 ;	sel -> Y+2
                 ;	*data -> Y+0
                 _0xC7:
000737 81e8      	LD   R30,Y
000738 81f9      	LDD  R31,Y+1
000739 91e4      	LPM  R30,Z
00073a 30e0      	CPI  R30,0
00073b f061      	BREQ _0xC9
                 ;  {
                 ;    //symbol = *data++; //USART_PutChar(sel, symbol);
                 ;    USART_PutChar(sel, *data++);
00073c 81ea      	LDD  R30,Y+2
00073d 93ea      	ST   -Y,R30
00073e 81e9      	LDD  R30,Y+1
00073f 81fa      	LDD  R31,Y+1+1
000740 9631      	ADIW R30,1
000741 83e9      	STD  Y+1,R30
000742 83fa      	STD  Y+1+1,R31
000743 9731      	SBIW R30,1
000744 91e4      	LPM  R30,Z
000745 93ea      	ST   -Y,R30
000746 df86      	RCALL _USART_PutChar
                 ;  }
000747 cfef      	RJMP _0xC7
                 _0xC9:
                 ;}
000748 c1c1      	RJMP _0x20C0009
                 ;
                 ;
                 ;  //Optimised
                 ;//    
                 ;interrupt [USART0_DRE] void usart0_dre_my(void)  //USART Data Register Empty Interrupt
                 ;{
                 _usart0_dre_my:
000749 940e 1310 	CALL SUBOPT_0x7
                 ;uint16_t Tmp = Usart0_txBufTail; // use local variable instead of volatile
                 ;
                 ;      if(Tmp != Usart0_txBufHead) // Not all transmitted
                 ;	Tmp -> R16,R17
                +
00074b 9100 0921+LDS R16 , 0 + ( _Usart0_txBufTail_G000 )
00074d 9110 0922+LDS R17 , 0 + ( _Usart0_txBufTail_G000 ) + 1
                 	__GETWRMN 16,17,0,_Usart0_txBufTail_G000
00074f 91e0 0923 	LDS  R30,_Usart0_txBufHead_G000
000751 91f0 0924 	LDS  R31,_Usart0_txBufHead_G000+1
000753 17e0      	CP   R30,R16
000754 07f1      	CPC  R31,R17
000755 f069      	BREQ _0xCA
                 ;       {
                 ;       UDR0 = Usart0_TX_buf[Tmp & (SIZE_BUF_TX - 1)];
000756 01f8      	MOVW R30,R16
000757 70f1      	ANDI R31,HIGH(0x1FF)
000758 5def      	SUBI R30,LOW(-_Usart0_TX_buf_G000)
000759 4ff8      	SBCI R31,HIGH(-_Usart0_TX_buf_G000)
00075a 81e0      	LD   R30,Z
00075b b9ec      	OUT  0xC,R30
                 ;       ++Tmp;
                +
00075c 5f0f     +SUBI R16 , LOW ( - 1 )
00075d 4f1f     +SBCI R17 , HIGH ( - 1 )
                 	__ADDWRN 16,17,1
                 ;       Usart0_txBufTail = Tmp;
                +
00075e 9300 0921+STS _Usart0_txBufTail_G000 + ( 0 ) , R16
000760 9310 0922+STS _Usart0_txBufTail_G000 + ( 0 ) + 1 , R17
                 	__PUTWMRN _Usart0_txBufTail_G000,0,16,17
                 ;       }
                 ;       else{
000762 c007      	RJMP _0xCB
                 _0xCA:
                 ;    // PORTD.6=0;
                 ;         Usart0_txBufHead = 0; Usart0_txBufTail = 0;
000763 940e 12da 	CALL SUBOPT_0x2
000765 93e0 0921 	STS  _Usart0_txBufTail_G000,R30
000767 93e0 0922 	STS  _Usart0_txBufTail_G000+1,R30
                 ;        UCSR0B &= ~(1 << UDRIE0); // disable this int
000769 9855      	CBI  0xA,5
                 ;       }
                 _0xCB:
                 ;#ifdef DEBUG
                 ;TX_CNT++;
                 ;#endif
                 ;}
00076a c025      	RJMP _0x247
                 ;
                 ;//    
                 ;interrupt [USART1_DRE] void usart1_dre_my(void)  //USART Data Register Empty Interrupt
                 ;{
                 _usart1_dre_my:
00076b 940e 1310 	CALL SUBOPT_0x7
                 ;uint16_t Tmp = Usart1_txBufTail; // use local variable instead of volatile
                 ;        UDR1 = Usart1_TX_buf[Tmp & (SIZE_BUF_TX - 1)];
                 ;	Tmp -> R16,R17
                +
00076d 9100 0b25+LDS R16 , 0 + ( _Usart1_txBufTail_G000 )
00076f 9110 0b26+LDS R17 , 0 + ( _Usart1_txBufTail_G000 ) + 1
                 	__GETWRMN 16,17,0,_Usart1_txBufTail_G000
000771 01f8      	MOVW R30,R16
000772 70f1      	ANDI R31,HIGH(0x1FF)
000773 5deb      	SUBI R30,LOW(-_Usart1_TX_buf_G000)
000774 4ff6      	SBCI R31,HIGH(-_Usart1_TX_buf_G000)
000775 81e0      	LD   R30,Z
000776 93e0 009c 	STS  156,R30
                 ;       ++Tmp;
                +
000778 5f0f     +SUBI R16 , LOW ( - 1 )
000779 4f1f     +SBCI R17 , HIGH ( - 1 )
                 	__ADDWRN 16,17,1
                 ;       Usart1_txBufTail = Tmp;
                +
00077a 9300 0b25+STS _Usart1_txBufTail_G000 + ( 0 ) , R16
00077c 9310 0b26+STS _Usart1_txBufTail_G000 + ( 0 ) + 1 , R17
                 	__PUTWMRN _Usart1_txBufTail_G000,0,16,17
                 ;      if(Tmp == Usart1_txBufHead) // all transmitted
00077e 91e0 0b27 	LDS  R30,_Usart1_txBufHead_G000
000780 91f0 0b28 	LDS  R31,_Usart1_txBufHead_G000+1
000782 17e0      	CP   R30,R16
000783 07f1      	CPC  R31,R17
000784 f459      	BRNE _0xCC
                 ;       {
                 ;       //PORTD.6=0;
                 ;         Usart1_txBufHead = 0; Usart1_txBufTail = 0;
000785 940e 130a 	CALL SUBOPT_0x6
000787 93e0 0b25 	STS  _Usart1_txBufTail_G000,R30
000789 93e0 0b26 	STS  _Usart1_txBufTail_G000+1,R30
                 ;        UCSR1B &= ~(1 << UDRIE1); // disable this int
00078b 91e0 009a 	LDS  R30,154
00078d 7def      	ANDI R30,0xDF
00078e 93e0 009a 	STS  154,R30
                 ;       }
                 ;#ifdef DEBUG
                 ;//TX_CNT++;
                 ;#endif
                 ;}
                 _0xCC:
                 _0x247:
000790 9109      	LD   R16,Y+
000791 9119      	LD   R17,Y+
000792 91e9      	LD   R30,Y+
000793 bfef      	OUT  SREG,R30
000794 91f9      	LD   R31,Y+
000795 91e9      	LD   R30,Y+
000796 9518      	RETI
                 ;/*
                 ;ISR (USART_TXC_vect) {
                 ;	if (TX_buff.head!=TX_buff.tail) {
                 ;		UDR = TX_buff.buff[TX_buff.head];
                 ;		TX_buff.head = (TX_buff.head+1)&(TX_BUFFER_SIZE-1);
                 ;	} else {
                 ;		UART_message = UART_TX_COMPLETE;
                 ;		SendMessageWParam(MSG_UART, &UART_message);
                 ;	}
                 ;}
                 ;*/
                 ;//______________________________________________________________________________
                 ;
                 ;unsigned char USART_Get_rxCount(uint8_t sel) //      
                 ;{
                 _USART_Get_rxCount:
                 ;return  sel ? Usart1_rxCount : Usart0_rxCount;
                 ;	sel -> Y+0
000797 81e8      	LD   R30,Y
000798 30e0      	CPI  R30,0
000799 f019      	BREQ _0xCD
00079a 91e0 0d33 	LDS  R30,_Usart1_rxCount_G000
00079c c002      	RJMP _0xCE
                 _0xCD:
00079d 91e0 0c2d 	LDS  R30,_Usart0_rxCount_G000
                 _0xCE:
00079f c0f8      	RJMP _0x20C000B
                 ;}
                 ;
                 ;void USART_FlushRxBuf(uint8_t sel)//""  
                 ;{
                 ;  // uint8_t saved_state;
                 ;   RX_CNT = 0;
                 ;	sel -> Y+0
                 ;__disable_interrupts();
                 ;if(!sel){
                 ;  Usart0_rxBufTail = 0;
                 ;  Usart0_rxBufHead = 0;
                 ;  Usart0_rxCount = 0;
                 ;} else{
                 ;  Usart1_rxBufTail = 0;
                 ;  Usart1_rxBufHead = 0;
                 ;  Usart1_rxCount = 0;
                 ;}
                 ;__restore_interrupts();
                 ;}
                 ;
                 ;
                 ;char USART_GetChar(uint8_t sel) // 
                 ;{
                 _USART_GetChar:
                 ;  unsigned char symbol;
                 ;  uint8_t saved_state;
                 ;if(!sel){
0007a0 931a      	ST   -Y,R17
0007a1 930a      	ST   -Y,R16
                 ;	sel -> Y+2
                 ;	symbol -> R17
                 ;	saved_state -> R16
0007a2 81ea      	LDD  R30,Y+2
0007a3 30e0      	CPI  R30,0
0007a4 f551      	BRNE _0xD5
                 ;  if (Usart0_rxCount > 0)        //    
0007a5 91a0 0c2d 	LDS  R26,_Usart0_rxCount_G000
0007a7 91b0 0c2e 	LDS  R27,_Usart0_rxCount_G000+1
0007a9 940e 16b5 	CALL __CPW02
0007ab f4f8      	BRSH _0xD6
                 ;  {
                 ;    symbol = Usart0_RX_buf[Usart0_rxBufHead];        //   
0007ac 91e0 0c2b 	LDS  R30,_Usart0_rxBufHead_G000
0007ae 91f0 0c2c 	LDS  R31,_Usart0_rxBufHead_G000+1
0007b0 5de7      	SUBI R30,LOW(-_Usart0_RX_buf_G000)
0007b1 4ff4      	SBCI R31,HIGH(-_Usart0_RX_buf_G000)
0007b2 8110      	LD   R17,Z
                 ;    Usart0_rxBufHead++;                        //   
0007b3 e2ab      	LDI  R26,LOW(_Usart0_rxBufHead_G000)
0007b4 e0bc      	LDI  R27,HIGH(_Usart0_rxBufHead_G000)
0007b5 940e 1317 	CALL SUBOPT_0x8
                 ;    if (Usart0_rxBufHead == SIZE_BUF_RX) Usart0_rxBufHead = 0;
0007b7 91a0 0c2b 	LDS  R26,_Usart0_rxBufHead_G000
0007b9 91b0 0c2c 	LDS  R27,_Usart0_rxBufHead_G000+1
0007bb 30a0      	CPI  R26,LOW(0x100)
0007bc e0e1      	LDI  R30,HIGH(0x100)
0007bd 07be      	CPC  R27,R30
0007be f429      	BRNE _0xD7
0007bf e0e0      	LDI  R30,LOW(0)
0007c0 93e0 0c2b 	STS  _Usart0_rxBufHead_G000,R30
0007c2 93e0 0c2c 	STS  _Usart0_rxBufHead_G000+1,R30
                 ;__disable_interrupts();
                 _0xD7:
0007c4 b70f      	IN   R16,63
0007c5 94f8      	cli
                 ;    Usart0_rxCount--;                          //  
0007c6 e2ad      	LDI  R26,LOW(_Usart0_rxCount_G000)
0007c7 e0bc      	LDI  R27,HIGH(_Usart0_rxCount_G000)
0007c8 940e 131d 	CALL SUBOPT_0x9
                 ;__restore_interrupts();
                 ;    return symbol;                         //  
0007ca c13f      	RJMP _0x20C0009
                 ;  }
                 ;  return 0;
                 _0xD6:
0007cb e0e0      	LDI  R30,LOW(0)
0007cc 8119      	LDD  R17,Y+1
0007cd 8108      	LDD  R16,Y+0
0007ce c13b      	RJMP _0x20C0009
                 ;  }
                 ;  else
                 _0xD5:
                 ;  {
                 ;   if (Usart1_rxCount > 0)        //    
0007cf 91a0 0d33 	LDS  R26,_Usart1_rxCount_G000
0007d1 91b0 0d34 	LDS  R27,_Usart1_rxCount_G000+1
0007d3 940e 16b5 	CALL __CPW02
0007d5 f4f8      	BRSH _0xDC
                 ;  {
                 ;    symbol = Usart1_RX_buf[Usart1_rxBufHead];        //   
0007d6 91e0 0d31 	LDS  R30,_Usart1_rxBufHead_G000
0007d8 91f0 0d32 	LDS  R31,_Usart1_rxBufHead_G000+1
0007da 5de1      	SUBI R30,LOW(-_Usart1_RX_buf_G000)
0007db 4ff3      	SBCI R31,HIGH(-_Usart1_RX_buf_G000)
0007dc 8110      	LD   R17,Z
                 ;    Usart1_rxBufHead++;                        //   
0007dd e3a1      	LDI  R26,LOW(_Usart1_rxBufHead_G000)
0007de e0bd      	LDI  R27,HIGH(_Usart1_rxBufHead_G000)
0007df 940e 1317 	CALL SUBOPT_0x8
                 ;    if (Usart1_rxBufHead == SIZE_BUF_RX) Usart1_rxBufHead = 0;
0007e1 91a0 0d31 	LDS  R26,_Usart1_rxBufHead_G000
0007e3 91b0 0d32 	LDS  R27,_Usart1_rxBufHead_G000+1
0007e5 30a0      	CPI  R26,LOW(0x100)
0007e6 e0e1      	LDI  R30,HIGH(0x100)
0007e7 07be      	CPC  R27,R30
0007e8 f429      	BRNE _0xDD
0007e9 e0e0      	LDI  R30,LOW(0)
0007ea 93e0 0d31 	STS  _Usart1_rxBufHead_G000,R30
0007ec 93e0 0d32 	STS  _Usart1_rxBufHead_G000+1,R30
                 ;__disable_interrupts();
                 _0xDD:
0007ee b70f      	IN   R16,63
0007ef 94f8      	cli
                 ;    Usart1_rxCount--;                          //  
0007f0 e3a3      	LDI  R26,LOW(_Usart1_rxCount_G000)
0007f1 e0bd      	LDI  R27,HIGH(_Usart1_rxCount_G000)
0007f2 940e 131d 	CALL SUBOPT_0x9
                 ;__restore_interrupts();
                 ;    return symbol;                         //  
0007f4 c115      	RJMP _0x20C0009
                 ;  }
                 ;  return 0;
                 _0xDC:
0007f5 e0e0      	LDI  R30,LOW(0)
0007f6 8119      	LDD  R17,Y+1
0007f7 8108      	LDD  R16,Y+0
0007f8 c111      	RJMP _0x20C0009
                 ;  }
                 ;}
                 ;
                 ;
                 ;
                 ;/*
                 ;  ISR (USART_RXC_vect) {
                 ;	u08 tmp = 0;
                 ;	tmp = UDR;
                 ;	if (((RX_buff.tail - RX_buff.head + 256) & (RX_BUFFER_SIZE-1)) < (RX_BUFFER_SIZE-1)) {
                 ;		RX_buff.buff[RX_buff.tail] = tmp;
                 ;		RX_buff.tail = (RX_buff.tail+1)&(RX_BUFFER_SIZE-1);
                 ;		if (tmp == 0x0D) {										// found end string classifier
                 ;			RX_buff.tail = (RX_buff.tail-1)&(RX_BUFFER_SIZE-1); // remove string end classifier from buffer
                 ;			///RX_buff.buff[RX_buff.tail] = '\0';				// replace string end delimiter with C standard string end
                 ;			UART_message = UART_RX_COMPLETE;
                 ;			SendMessageWParam(MSG_UART, &UART_message);
                 ;		}
                 ;	} else {
                 ;		sys_error = SYS_ERR_RX_BUF_FULL;
                 ;	}
                 ;}
                 ;*/
                 ; interrupt [USART0_RXC] void usart0_rxc(void) //   
                 ;{
                 _usart0_rxc:
0007f9 940e 1329 	CALL SUBOPT_0xA
                 ;char data;//!
                 ;data =  UDR0;//! read to clear RxC flag!
                 ;	data -> R17
0007fb b11c      	IN   R17,12
                 ;    if (Usart0_rxCount < SIZE_BUF_RX) //     
0007fc 91a0 0c2d 	LDS  R26,_Usart0_rxCount_G000
0007fe 91b0 0c2e 	LDS  R27,_Usart0_rxCount_G000+1
000800 30a0      	CPI  R26,LOW(0x100)
000801 e0e1      	LDI  R30,HIGH(0x100)
000802 07be      	CPC  R27,R30
000803 f4e0      	BRSH _0xE1
                 ;    {
                 ;      //!//Usart0_RX_buf[Usart0_rxBufTail] = UDR;    //   UDR  
                 ;       Usart0_RX_buf[Usart0_rxBufTail] = data;//!    //   
000804 91e0 0c29 	LDS  R30,_Usart0_rxBufTail_G000
000806 91f0 0c2a 	LDS  R31,_Usart0_rxBufTail_G000+1
000808 5de7      	SUBI R30,LOW(-_Usart0_RX_buf_G000)
000809 4ff4      	SBCI R31,HIGH(-_Usart0_RX_buf_G000)
00080a 8310      	ST   Z,R17
                 ;      Usart0_rxBufTail++;                    //    
00080b e2a9      	LDI  R26,LOW(_Usart0_rxBufTail_G000)
00080c e0bc      	LDI  R27,HIGH(_Usart0_rxBufTail_G000)
00080d 940e 1317 	CALL SUBOPT_0x8
                 ;      Usart0_rxCount++;                      //   
00080f e2ad      	LDI  R26,LOW(_Usart0_rxCount_G000)
000810 e0bc      	LDI  R27,HIGH(_Usart0_rxCount_G000)
000811 940e 1317 	CALL SUBOPT_0x8
                 ;#warning    
                 ;     if (Usart0_rxBufTail == SIZE_BUF_RX)
000813 91a0 0c29 	LDS  R26,_Usart0_rxBufTail_G000
000815 91b0 0c2a 	LDS  R27,_Usart0_rxBufTail_G000+1
000817 30a0      	CPI  R26,LOW(0x100)
000818 e0e1      	LDI  R30,HIGH(0x100)
000819 07be      	CPC  R27,R30
00081a f429      	BRNE _0xE2
                 ;      {
                 ;       Usart0_rxBufTail = 0;
00081b e0e0      	LDI  R30,LOW(0)
00081c 93e0 0c29 	STS  _Usart0_rxBufTail_G000,R30
00081e 93e0 0c2a 	STS  _Usart0_rxBufTail_G000+1,R30
                 ;      }
                 ;    }
                 _0xE2:
                 ;#ifdef DEBUG
                 ;RX_CNT++;
                 ;#endif
                 ;}
                 _0xE1:
000820 c028      	RJMP _0x246
                 ;
                 ;
                 ;
                 ;
                 ; interrupt [USART1_RXC] void usart1_rxc(void) //   
                 ;{
                 _usart1_rxc:
000821 940e 1329 	CALL SUBOPT_0xA
                 ;char data;//!
                 ;data =  UDR1;//! read to clear RxC flag!
                 ;	data -> R17
000823 9110 009c 	LDS  R17,156
                 ;    if (Usart1_rxCount < SIZE_BUF_RX) //     
000825 91a0 0d33 	LDS  R26,_Usart1_rxCount_G000
000827 91b0 0d34 	LDS  R27,_Usart1_rxCount_G000+1
000829 30a0      	CPI  R26,LOW(0x100)
00082a e0e1      	LDI  R30,HIGH(0x100)
00082b 07be      	CPC  R27,R30
00082c f4e0      	BRSH _0xE3
                 ;    {
                 ;      //!//Usart1_RX_buf[Usart1_rxBufTail] = UDR1;    //   UDR  
                 ;       Usart1_RX_buf[Usart1_rxBufTail] = data;//!    //    
00082d 91e0 0d2f 	LDS  R30,_Usart1_rxBufTail_G000
00082f 91f0 0d30 	LDS  R31,_Usart1_rxBufTail_G000+1
000831 5de1      	SUBI R30,LOW(-_Usart1_RX_buf_G000)
000832 4ff3      	SBCI R31,HIGH(-_Usart1_RX_buf_G000)
000833 8310      	ST   Z,R17
                 ;      Usart1_rxBufTail++;                    //    
000834 e2af      	LDI  R26,LOW(_Usart1_rxBufTail_G000)
000835 e0bd      	LDI  R27,HIGH(_Usart1_rxBufTail_G000)
000836 940e 1317 	CALL SUBOPT_0x8
                 ;      Usart1_rxCount++;                      //   
000838 e3a3      	LDI  R26,LOW(_Usart1_rxCount_G000)
000839 e0bd      	LDI  R27,HIGH(_Usart1_rxCount_G000)
00083a 940e 1317 	CALL SUBOPT_0x8
                 ;#warning    
                 ;    if (Usart1_rxBufTail == SIZE_BUF_RX)
00083c 91a0 0d2f 	LDS  R26,_Usart1_rxBufTail_G000
00083e 91b0 0d30 	LDS  R27,_Usart1_rxBufTail_G000+1
000840 30a0      	CPI  R26,LOW(0x100)
000841 e0e1      	LDI  R30,HIGH(0x100)
000842 07be      	CPC  R27,R30
000843 f429      	BRNE _0xE4
                 ;      {
                 ;       Usart1_rxBufTail = 0;
000844 e0e0      	LDI  R30,LOW(0)
000845 93e0 0d2f 	STS  _Usart1_rxBufTail_G000,R30
000847 93e0 0d30 	STS  _Usart1_rxBufTail_G000+1,R30
                 ;      }
                 ;     }
                 _0xE4:
                 ;}
                 _0xE3:
                 _0x246:
000849 9119      	LD   R17,Y+
00084a 91e9      	LD   R30,Y+
00084b bfef      	OUT  SREG,R30
00084c 91f9      	LD   R31,Y+
00084d 91e9      	LD   R30,Y+
00084e 91b9      	LD   R27,Y+
00084f 91a9      	LD   R26,Y+
000850 9518      	RETI
                 ;
                 ;
                 ;// -    
                 ; uint16_t How_Much_data_in_buf (uint16_t BufTail, uint16_t BufHead)
                 ;{
                 ;    if (BufTail >=  BufHead)
                 ;	BufTail -> Y+2
                 ;	BufHead -> Y+0
                 ;        return (BufTail -  BufHead);
                 ;    else
                 ;        return ((SIZE_BUF_TX -  BufHead) + BufTail);
                 ;}
                 ;
                 ;
                 ;
                 ;
                 ;
                 ;
                 ;
                 ;
                 ;
                 ;
                 ;#include "parser.h"
                 ;
                 ;char buf[SIZE_RECEIVE_BUF];
                 ;char *argv[AMOUNT_PAR];
                 ;uint8_t argc;
                 ;
                 ;uint8_t i = 0;
                 ;uint8_t flag = 0;
                 ;
                 ;void PARSER_Init(void)
                 ;{
                 _PARSER_Init:
                 ;  argc = 0;
000851 24bb      	CLR  R11
                 ;  argv[0] = buf;
000852 940e 1331 	CALL SUBOPT_0xB
                 ;  flag = FALSE;
000854 24dd      	CLR  R13
                 ;  i = 0;
000855 24aa      	CLR  R10
                 ;}
000856 9508      	RET
                 ;
                 ;void PARS_Parser(char symbol)
                 ;{
                 _PARS_Parser:
                 ;   if (symbol !='\r'){               //'\r' //end of string
                 ;	symbol -> Y+0
000857 81a8      	LD   R26,Y
000858 30ad      	CPI  R26,LOW(0xD)
000859 f171      	BREQ _0xE7
                 ;     if (i < SIZE_RECEIVE_BUF - 1){
00085a e7ef      	LDI  R30,LOW(127)
00085b 16ae      	CP   R10,R30
00085c f530      	BRSH _0xE8
                 ;        if (symbol != ' '){
00085d 32a0      	CPI  R26,LOW(0x20)
00085e f0d9      	BREQ _0xE9
                 ;           if (!argc){
00085f 20bb      	TST  R11
000860 f419      	BRNE _0xEA
                 ;              argv[0] = buf;
000861 940e 1331 	CALL SUBOPT_0xB
                 ;              argc++;
000863 94b3      	INC  R11
                 ;           }
                 ;
                 ;           if (flag){
                 _0xEA:
000864 20dd      	TST  R13
000865 f071      	BREQ _0xEB
                 ;              if (argc < AMOUNT_PAR){
000866 e0ea      	LDI  R30,LOW(10)
000867 16be      	CP   R11,R30
000868 f450      	BRSH _0xEC
                 ;                 argv[argc] = &buf[i];
000869 2deb      	MOV  R30,R11
00086a eba5      	LDI  R26,LOW(_argv)
00086b e0bd      	LDI  R27,HIGH(_argv)
00086c 940e 1338 	CALL SUBOPT_0xC
00086e 940e 133e 	CALL SUBOPT_0xD
000870 93ed      	ST   X+,R30
000871 93fc      	ST   X,R31
                 ;                 argc++;
000872 94b3      	INC  R11
                 ;              }
                 ;              flag = FALSE;
                 _0xEC:
000873 24dd      	CLR  R13
                 ;            }
                 ;
                 ;            buf[i] = symbol;
                 _0xEB:
000874 940e 133e 	CALL SUBOPT_0xD
000876 81a8      	LD   R26,Y
000877 83a0      	STD  Z+0,R26
                 ;            i++;
000878 94a3      	INC  R10
                 ;        }
                 ;        else{                 // "space" - is divider
000879 c009      	RJMP _0xED
                 _0xE9:
                 ;           if (!flag){
00087a 20dd      	TST  R13
00087b f439      	BRNE _0xEE
                 ;              buf[i] = 0;
00087c 940e 133e 	CALL SUBOPT_0xD
00087e e0a0      	LDI  R26,LOW(0)
00087f 83a0      	STD  Z+0,R26
                 ;              i++;
000880 94a3      	INC  R10
                 ;              flag = TRUE;
000881 e0e1      	LDI  R30,LOW(1)
000882 2ede      	MOV  R13,R30
                 ;           }
                 ;        }
                 _0xEE:
                 _0xED:
                 ;     }
                 ;     buf[i] = 0;
                 _0xE8:
000883 940e 133e 	CALL SUBOPT_0xD
000885 e0a0      	LDI  R26,LOW(0)
000886 83a0      	STD  Z+0,R26
                 ;     return;
000887 c010      	RJMP _0x20C000B
                 ;   }
                 ;   else{
                 _0xE7:
                 ;      buf[i] = 0;
000888 940e 133e 	CALL SUBOPT_0xD
00088a e0a0      	LDI  R26,LOW(0)
00088b 83a0      	STD  Z+0,R26
                 ;        if (argc)
00088c 20bb      	TST  R11
00088d f039      	BREQ _0xF0
                 ;           {
                 ;                PARS_Handler(argc, argv);
00088e 92ba      	ST   -Y,R11
00088f ebe5      	LDI  R30,LOW(_argv)
000890 e0fd      	LDI  R31,HIGH(_argv)
000891 93fa      	ST   -Y,R31
000892 93ea      	ST   -Y,R30
000893 940e 0f24 	CALL _PARS_Handler
                 ;           }
                 ;      //   else{
                 ;                  //  -   ");
                 ;       //      }
                 ;      argc = 0;
                 _0xF0:
000895 24bb      	CLR  R11
                 ;      flag = FALSE;
000896 24dd      	CLR  R13
                 ;      i = 0;
000897 24aa      	CLR  R10
                 ;   }
                 ;}
                 _0x20C000B:
000898 9621      	ADIW R28,1
000899 9508      	RET
                 ;
                 ;#ifdef  __GNUC__
                 ;
                 ;uint8_t PARS_EqualStrFl(char *s1, char const *s2)
                 ;{
                 ;  uint8_t i = 0;
                 ;
                 ;  while(s1[i] == pgm_read_byte(&s2[i]) && s1[i] != '\0' && pgm_read_byte(&s2[i]) != '\0')
                 ;  {
                 ;     i++;
                 ;  }
                 ;  if (s1[i] =='\0' && pgm_read_byte(&s2[i]) == '\0')
                 ;  {
                 ;     return TRUE;
                 ;  }
                 ;  else
                 ;  {
                 ;     return FALSE;
                 ;  }
                 ;}
                 ;
                 ;#else
                 ;
                 ;#warning standart strcmpf req less memory
                 ;uint8_t PARS_EqualStrFl(char *s1, char __flash *s2)
                 ;{
                 ;  uint8_t i = 0;
                 ;
                 ;  while(s1[i] == s2[i] && s1[i] != '\0' && s2[i] != '\0')
                 ;	*s1 -> Y+3
                 ;	*s2 -> Y+1
                 ;	i -> R17
                 ;  {
                 ;     i++;
                 ;  }
                 ;  if (s1[i] =='\0' && s2[i] == '\0')
                 ;  {
                 ;     return TRUE;
                 ;  }
                 ;  else
                 ;  {
                 ;     return FALSE;
                 ;  }
                 ;}
                 ;
                 ;#endif
                 ;
                 ;#warning standart strcmp req less memory
                 ;uint8_t PARS_EqualStr(char *s1, char *s2)
                 ;{
                 ;  uint8_t i = 0;
                 ;
                 ;  while(s1[i] == s2[i] && s1[i] != '\0' && s2[i] != '\0')
                 ;	*s1 -> Y+3
                 ;	*s2 -> Y+1
                 ;	i -> R17
                 ;  {
                 ;     i++;
                 ;  }
                 ;  if (s1[i] =='\0' && s2[i] == '\0')
                 ;  {
                 ;     return TRUE;
                 ;  }
                 ;  else
                 ;  {
                 ;     return FALSE;
                 ;  }
                 ;}
                 ;
                 ;uint8_t PARS_StrToUchar(char *s)
                 ;{
                 _PARS_StrToUchar:
                 ;   uint8_t value = 0;
                 ;  // while(*s == '0'){s++;} // For what?
                 ;   while(*s)
00089a 931a      	ST   -Y,R17
                 ;	*s -> Y+1
                 ;	value -> R17
00089b e010      	LDI  R17,0
                 _0x103:
00089c 81a9      	LDD  R26,Y+1
00089d 81ba      	LDD  R27,Y+1+1
00089e 91ec      	LD   R30,X
00089f 30e0      	CPI  R30,0
0008a0 f081      	BREQ _0x105
                 ;   {
                 ;      value += (*s - 0x30);
0008a1 53e0      	SUBI R30,LOW(48)
0008a2 0f1e      	ADD  R17,R30
                 ;      s++;
0008a3 81e9      	LDD  R30,Y+1
0008a4 81fa      	LDD  R31,Y+1+1
0008a5 9631      	ADIW R30,1
0008a6 83e9      	STD  Y+1,R30
0008a7 83fa      	STD  Y+1+1,R31
                 ;      if (*s){
0008a8 81a9      	LDD  R26,Y+1
0008a9 81ba      	LDD  R27,Y+1+1
0008aa 91ec      	LD   R30,X
0008ab 30e0      	CPI  R30,0
0008ac f019      	BREQ _0x106
                 ;         value *= 10;
0008ad e0aa      	LDI  R26,LOW(10)
0008ae 9f1a      	MUL  R17,R26
0008af 2d10      	MOV  R17,R0
                 ;      }
                 ;   };
                 _0x106:
0008b0 cfeb      	RJMP _0x103
                 _0x105:
                 ;
                 ;  return value;
0008b1 2fe1      	MOV  R30,R17
0008b2 8118      	LDD  R17,Y+0
0008b3 c056      	RJMP _0x20C0009
                 ;}
                 ;
                 ;uint16_t PARS_StrToUint(char *s)
                 ;{
                 _PARS_StrToUint:
                 ;   uint16_t value = 0;
                 ;
                 ;   //while(*s == '0'){s++;}
                 ;
                 ;   while(*s)
0008b4 931a      	ST   -Y,R17
0008b5 930a      	ST   -Y,R16
                 ;	*s -> Y+2
                 ;	value -> R16,R17
                +
0008b6 e000     +LDI R16 , LOW ( 0 )
0008b7 e010     +LDI R17 , HIGH ( 0 )
                 	__GETWRN 16,17,0
                 _0x107:
0008b8 81aa      	LDD  R26,Y+2
0008b9 81bb      	LDD  R27,Y+2+1
0008ba 91ec      	LD   R30,X
0008bb 30e0      	CPI  R30,0
0008bc f0a9      	BREQ _0x109
                 ;   {
                 ;      value += (*s - 0x30);
0008bd 53e0      	SUBI R30,LOW(48)
0008be e0f0      	LDI  R31,0
                +
0008bf 0f0e     +ADD R16 , R30
0008c0 1f1f     +ADC R17 , R31
                 	__ADDWRR 16,17,30,31
                 ;      s++;
0008c1 81ea      	LDD  R30,Y+2
0008c2 81fb      	LDD  R31,Y+2+1
0008c3 9631      	ADIW R30,1
0008c4 83ea      	STD  Y+2,R30
0008c5 83fb      	STD  Y+2+1,R31
                 ;      if (*s){
0008c6 81aa      	LDD  R26,Y+2
0008c7 81bb      	LDD  R27,Y+2+1
0008c8 91ec      	LD   R30,X
0008c9 30e0      	CPI  R30,0
0008ca f031      	BREQ _0x10A
                 ;         value *= 10;
                +
0008cb e0aa     +LDI R26 , 10
0008cc 9fa0     +MUL R26 , R16
0008cd 01f0     +MOVW R30 , R0
0008ce 9fa1     +MUL R26 , R17
0008cf 0df0     +ADD R31 , R0
                 	__MULBNWRU 16,17,10
0008d0 018f      	MOVW R16,R30
                 ;      }
                 ;   };
                 _0x10A:
0008d1 cfe6      	RJMP _0x107
                 _0x109:
                 ;
                 ;  return value;
0008d2 01f8      	MOVW R30,R16
                 _0x20C000A:
0008d3 8119      	LDD  R17,Y+1
0008d4 8108      	LDD  R16,Y+0
0008d5 9624      	ADIW R28,4
0008d6 9508      	RET
                 ;}
                 ;//***************************************************************************
                 ;//
                 ;//  Author(s)...: Vlad
                 ;//
                 ;//  Target(s)...: Mega
                 ;//
                 ;//  Compiler....:
                 ;//
                 ;//  Description.:  SPI
                 ;//
                 ;//  Data........: 11.2.14
                 ;//
                 ;//***************************************************************************
                 ;#include "spi.h"
                 ;
                 ;#include "RTOS/EERTOS.h"
                 ;#include "RTOS/EERTOSHAL.h"
                 ; #include "D_Tasks/task_list.h"
                 ; /*
                 ;    SPDR    !
                 ; */
                 ;#warning   
                 ;// 
                 ;static volatile char Spi0_TX_buf[SIZE_SPI_BUF_TX];
                 ;static volatile uint16_t Spi0_txBufTail = 0;
                 ;static volatile uint16_t Spi0_txBufHead = 0;
                 ;
                 ;static volatile char Spi1_TX_buf[SIZE_SPI_BUF_TX];
                 ;static volatile uint16_t Spi1_txBufTail = 0;
                 ;static volatile uint16_t Spi1_txBufHead = 0;
                 ; #warning  Spi0_txCount not used
                 ;
                 ;
                 ;// 
                 ;static volatile char Spi0_RX_buf[SIZE_SPI_BUF_RX];
                 ;static volatile uint16_t Spi0_rxBufTail = 0;
                 ;static volatile uint16_t Spi0_rxBufHead = 0;
                 ;static volatile uint16_t Spi0_rxCount = 0;
                 ;
                 ;static volatile char Spi1_RX_buf[SIZE_SPI_BUF_RX];
                 ;static volatile uint16_t Spi1_rxBufTail = 0;
                 ;static volatile uint16_t Spi1_rxBufHead = 0;
                 ;static volatile uint16_t Spi1_rxCount = 0;
                 ;
                 ;bool TX_flag = 0;
                 ;bool RX_flag = 0;
                 ;
                 ;
                 ;void SpiTxBufOvf_Handler(void){
                 ;PORTD.7=0;
                 ;}
                 ;
                 ;void SPI_FlushTxBuf(uint8_t sel) //""  
                 ;{
                 ;  uint8_t saved_state;
                 ;__disable_interrupts();
                 ;	sel -> Y+1
                 ;	saved_state -> R17
                 ;
                 ; switch (sel)
                 ; {
                 ;   case SPI_0:
                 ;Spi_0_flush:
                 ;  Spi0_txBufTail = 0;
                 ;  Spi0_txBufHead = 0;
                 ;   break;
                 ;   case SPI_1:
                 ;
                 ;   break;
                 ;     default:
                 ; goto Spi_0_flush;
                 ;   break;
                 ;}
                 ;__restore_interrupts();
                 ;}
                 ;
                 ;
                 ;///////////////////////////////////////////////////////////////
                 ;////////////////////SOFTWARE SPI///////////////////////////////
                 ;
                 ;#warning  !
                 ;/* SPI*/
                 ;void Soft_SPI_Master_Init(void)
                 ;{
                 ;  /*  -
                 ;   ,  MISO */
                 ;  SPI_DDRX = (1<<SPI_MOSI)|(1<<SPI_SCK)|(1<<SPI_SS)|(0<<SPI_MISO);
                 ;  SPI_PORTX = (1<<SPI_MOSI)|(1<<SPI_SCK)|(1<<SPI_SS)|(1<<SPI_MISO);
                 ;
                 ;  /* spi,  ,,  0*/
                 ;  SPCR = (1<<SPE)|(0<<DORD)|(1<<MSTR)|(0<<CPOL)|(0<<CPHA)|(1<<SPR1)|(0<<SPR0);
                 ; // SPSR = (0<<SPI2X);
                 ; SPCR = (1<<SPIE); /* Enable SPI, Interrupt */
                 ;}
                 ;
                 ;////////////////////SOFTWARE SPI///////////////////////////////
                 ;///////////////////////////////////////////////////////////////
                 ;
                 ;
                 ;
                 ;
                 ;
                 ;
                 ;///////////////////////////////////////////////////////////////
                 ;////////////////////HARDWARE SPI///////////////////////////////
                 ;
                 ;//---------------MASTER-----------------//
                 ;
                 ;void Hard_SPI_Master_Init_default(void)
                 ;{
                 _Hard_SPI_Master_Init_default:
                 ;SPCR = 0; /* Set MOSI and SCK output, all others input */
0008d7 e0e0      	LDI  R30,LOW(0)
0008d8 b9ed      	OUT  0xD,R30
                 ;  DDR_SPI = (1<<_MOSI)|(1<<_SCK)|(1<<_SS)|(0<<_MISO);;
0008d9 e0e7      	LDI  R30,LOW(7)
0008da bbe7      	OUT  0x17,R30
                 ;  PORT_SPI = (1<<_MOSI)|(1<<_SCK)|(1<<_SS)|(1<<_MISO);
0008db e0ef      	LDI  R30,LOW(15)
0008dc bbe8      	OUT  0x18,R30
                 ;/* Enable SPI, Master, set clock rate fck/16, Interrupt */
                 ;
                 ;SPCR = (1<<SPE)|(1<<MSTR)|(1<<SPR0);
0008dd e5e1      	LDI  R30,LOW(81)
0008de c067      	RJMP _0x20C0008
                 ;//SPCR = (1<<SPIE)|(1<<SPE); /* Enable SPI, Interrupt */     !
                 ;}
                 ;
                 ;
                 ;void Hard_SPI_Master_Init(bool phase, bool polarity, uint8_t prescaller)
                 ;{
                 _Hard_SPI_Master_Init:
                 ;SPCR = 0;
                 ;	phase -> Y+2
                 ;	polarity -> Y+1
                 ;	prescaller -> Y+0
0008df e0e0      	LDI  R30,LOW(0)
0008e0 b9ed      	OUT  0xD,R30
                 ;/* Set MOSI and SCK output, all others input */
                 ;  DDR_SPI = (1<<_MOSI)|(1<<_SCK)|(1<<_SS);  DDR_SPI &=~(1<<_MISO);
0008e1 e0e7      	LDI  R30,LOW(7)
0008e2 bbe7      	OUT  0x17,R30
0008e3 98bb      	CBI  0x17,3
                 ;  PORT_SPI = (1<<_MOSI)|(1<<_SCK)|(1<<_SS);//|(1<<_MISO);//  !
0008e4 bbe8      	OUT  0x18,R30
                 ;
                 ;  SPCR = (phase<<CPHA) | (polarity<<CPOL);
0008e5 81ea      	LDD  R30,Y+2
0008e6 0fee      	LSL  R30
0008e7 0fee      	LSL  R30
0008e8 2fae      	MOV  R26,R30
0008e9 81e9      	LDD  R30,Y+1
0008ea 0fee      	LSL  R30
0008eb 0fee      	LSL  R30
0008ec 0fee      	LSL  R30
0008ed 2bea      	OR   R30,R26
0008ee b9ed      	OUT  0xD,R30
                 ;
                 ;        switch(prescaller)  //prescaller
0008ef 81e8      	LD   R30,Y
                 ;        {
                 ;          case 2:
0008f0 30e2      	CPI  R30,LOW(0x2)
0008f1 f419      	BRNE _0x11A
                 ;           SPSR = (1<<SPI2X);
0008f2 e0e1      	LDI  R30,LOW(1)
0008f3 b9ee      	OUT  0xE,R30
                 ;          break;
0008f4 c013      	RJMP _0x119
                 ;          case 4:
                 _0x11A:
0008f5 30e4      	CPI  R30,LOW(0x4)
0008f6 f411      	BRNE _0x11B
                 ;           SPCR = (0<<SPR1) | (0<<SPR0);
0008f7 e0e0      	LDI  R30,LOW(0)
0008f8 c00e      	RJMP _0x22F
                 ;          break;
                 ;          case 8:
                 _0x11B:
0008f9 30e8      	CPI  R30,LOW(0x8)
0008fa f419      	BRNE _0x11C
                 ;           SPSR |= (1<<SPI2X);
0008fb 9a70      	SBI  0xE,0
                 ;           SPCR |= (1<<SPR0);
0008fc 9a68      	SBI  0xD,0
                 ;          break;
0008fd c00a      	RJMP _0x119
                 ;          case 16:
                 _0x11C:
0008fe 31e0      	CPI  R30,LOW(0x10)
0008ff f031      	BREQ _0x230
                 ;            SPCR = (1<<SPR0);
                 ;          break;
                 ;          case 32:
000900 32e0      	CPI  R30,LOW(0x20)
000901 f421      	BRNE _0x11E
                 ;           SPSR = (1<<SPI2X);
000902 e0e1      	LDI  R30,LOW(1)
000903 b9ee      	OUT  0xE,R30
                 ;           SPCR = (1<<SPR1);
000904 e0e2      	LDI  R30,LOW(2)
000905 c001      	RJMP _0x22F
                 ;          break;
                 ;          case 64:
                 _0x11E:
                 ;           SPCR = (1<<SPR0);
                 ;          break;
                 ;          case 128:
                 ;            SPCR = (1<<SPR0) | (1<<SPR0);
                 ;          break;
                 ;          default:
                 ;            SPCR = (1<<SPR0);
                 _0x230:
000906 e0e1      	LDI  R30,LOW(1)
                 _0x22F:
000907 b9ed      	OUT  0xD,R30
                 ;          break;
                 ;        }
                 _0x119:
                 ;SPCR = (1<<SPE)|(1<<MSTR);
000908 e5e0      	LDI  R30,LOW(80)
000909 b9ed      	OUT  0xD,R30
                 ;}
                 _0x20C0009:
00090a 9623      	ADIW R28,3
00090b 9508      	RET
                 ;
                 ;/*
                 ;sel - number of spi(0 - hardware)
                 ;mode - master/slave
                 ;*/
                 ;
                 ;void SPI_init(char sel, bool mode, bool phase, bool polarity, uint8_t prescaller){
                 _SPI_init:
                 ; switch (sel)
                 ;	sel -> Y+4
                 ;	mode -> Y+3
                 ;	phase -> Y+2
                 ;	polarity -> Y+1
                 ;	prescaller -> Y+0
00090c 81ec      	LDD  R30,Y+4
                 ; {
                 ;  case SPI_0:
00090d 30e0      	CPI  R30,0
00090e f481      	BRNE _0x128
                 ;   SPCR = 0;
00090f e0e0      	LDI  R30,LOW(0)
000910 b9ed      	OUT  0xD,R30
                 ;   SPSR = 0;
000911 b9ee      	OUT  0xE,R30
                 ;     if(mode == SPI_MASTER)
000912 81ab      	LDD  R26,Y+3
000913 30a1      	CPI  R26,LOW(0x1)
000914 f441      	BRNE _0x126
                 ;     {
                 ;       Hard_SPI_Master_Init(phase, polarity, prescaller);
000915 81ea      	LDD  R30,Y+2
000916 93ea      	ST   -Y,R30
000917 81ea      	LDD  R30,Y+2
000918 93ea      	ST   -Y,R30
000919 81ea      	LDD  R30,Y+2
00091a 93ea      	ST   -Y,R30
00091b dfc3      	RCALL _Hard_SPI_Master_Init
                 ;     }
                 ;     else //SLAVE
00091c c001      	RJMP _0x127
                 _0x126:
                 ;     {
                 ;       Hard_SPI_Slave_Init();
00091d d023      	RCALL _Hard_SPI_Slave_Init
                 ;     }
                 _0x127:
                 ;  break;
00091e c001      	RJMP _0x124
                 ;  /*
                 ;   case SPI_1:  //soft spi
                 ;   break;
                 ;  */
                 ;  default:
                 _0x128:
                 ;  Hard_SPI_Master_Init_default();
00091f dfb7      	RCALL _Hard_SPI_Master_Init_default
                 ;  break;
                 ; }
                 _0x124:
                 ;}
000920 c47a      	RJMP _0x20C0005
                 ;
                 ;#warning can be optimized!
                 ;void SPI_RW_Buf(uint8_t num, uint8_t *data_tx, uint8_t *data_rx)   //SPI write-read
                 ;{
                 _SPI_RW_Buf:
                 ;uint8_t i=0; //char data;
                 ;   SPI_PORTX &= ~(1<<SPI_SS);
000921 931a      	ST   -Y,R17
                 ;	num -> Y+5
                 ;	*data_tx -> Y+3
                 ;	*data_rx -> Y+1
                 ;	i -> R17
000922 e010      	LDI  R17,0
000923 98c0      	CBI  0x18,0
                 ;/*
                 ;while(num)
                 ;{
                 ;      SPDR = data_tx[i];  data_tx[i] = 0;
                 ;      while(!(SPSR & (1<<SPIF)));
                 ;      data_rx[i] = SPDR;
                 ;      // *data_tx++; *data_rx++;
                 ;       --num;
                 ;        i++;
                 ;}  */
                 ;
                 ;
                 ; while(*data_tx)
                 _0x129:
000924 81ab      	LDD  R26,Y+3
000925 81bc      	LDD  R27,Y+3+1
000926 91ec      	LD   R30,X
000927 30e0      	CPI  R30,0
000928 f089      	BREQ _0x12B
                 ;  {
                 ;      SPDR = *data_tx++;  //data_tx[i] = 0;
000929 91ed      	LD   R30,X+
00092a 83ab      	STD  Y+3,R26
00092b 83bc      	STD  Y+3+1,R27
00092c b9ef      	OUT  0xF,R30
                 ;      while(!(SPSR & (1<<SPIF)));
                 _0x12C:
00092d 9b77      	SBIS 0xE,7
00092e cffe      	RJMP _0x12C
                 ;      if(i<SIZE_SPI_BUF_RX){data_rx[i] = SPDR;}
00092f 3410      	CPI  R17,64
000930 f438      	BRSH _0x12F
000931 81a9      	LDD  R26,Y+1
000932 81ba      	LDD  R27,Y+1+1
000933 27ee      	CLR  R30
000934 0fa1      	ADD  R26,R17
000935 1fbe      	ADC  R27,R30
000936 b1ef      	IN   R30,0xF
000937 93ec      	ST   X,R30
                 ;      i++;
                 _0x12F:
000938 5f1f      	SUBI R17,-1
                 ;  }
000939 cfea      	RJMP _0x129
                 _0x12B:
                 ;   SPI_PORTX |= (1<<SPI_SS);
00093a 9ac0      	SBI  0x18,0
                 ;  SetTask(Task_SPI_ClrBuf); //
00093b ece9      	LDI  R30,LOW(_Task_SPI_ClrBuf)
00093c e0fd      	LDI  R31,HIGH(_Task_SPI_ClrBuf)
00093d 940e 1343 	CALL SUBOPT_0xE
                 ;}
00093f 8118      	LDD  R17,Y+0
000940 c30a      	RJMP _0x20C0007
                 ;//---------------END_MASTER-----------------//
                 ;
                 ;
                 ;//---------------SLAVE------------------------//
                 ;void Hard_SPI_Slave_Init(void)
                 ;{
                 _Hard_SPI_Slave_Init:
                 ;SPCR = 0;
000941 e0e0      	LDI  R30,LOW(0)
000942 b9ed      	OUT  0xD,R30
                 ;DDR_SPI = (1<<_MISO);/* Set MISO output, all others input */
000943 e0e8      	LDI  R30,LOW(8)
000944 bbe7      	OUT  0x17,R30
                 ;SPCR = (1<<SPE);/* Enable SPI */
000945 e4e0      	LDI  R30,LOW(64)
                 _0x20C0008:
000946 b9ed      	OUT  0xD,R30
                 ;}
000947 9508      	RET
                 ;//---------------END SLAVE----------------------//
                 ;
                 ;
                 ;////////////////////HARDWARE SPI///////////////////////////////
                 ;///////////////////////////////////////////////////////////////
                 ;
                 ;
                 ;
                 ;//    /
                 ;interrupt [SPI_STC] void spi_isr(void)  //  /!!!!!
                 ;{
                 _spi_isr:
000948 93aa      	ST   -Y,R26
000949 93ea      	ST   -Y,R30
00094a b7ef      	IN   R30,SREG
00094b 93ea      	ST   -Y,R30
                 ;char data;
                 ;uint8_t Tmp = Spi0_txBufTail; // use local variable instead of volatile
                 ; SPCR = (1<<MSTR);  //Master
00094c 931a      	ST   -Y,R17
00094d 930a      	ST   -Y,R16
                 ;	data -> R17
                 ;	Tmp -> R16
00094e 9100 0e09 	LDS  R16,_Spi0_txBufTail_G000
000950 e1e0      	LDI  R30,LOW(16)
000951 b9ed      	OUT  0xD,R30
                 ;  PORTD.6^=1;
000952 e0a0      	LDI  R26,0
000953 9996      	SBIC 0x12,6
000954 e0a1      	LDI  R26,1
000955 e0e1      	LDI  R30,LOW(1)
000956 27ea      	EOR  R30,R26
000957 f411      	BRNE _0x130
000958 9896      	CBI  0x12,6
000959 c001      	RJMP _0x131
                 _0x130:
00095a 9a96      	SBI  0x12,6
                 _0x131:
                 ;////////RX
                 ;data =  SPDR;
00095b b11f      	IN   R17,15
                 ;/*
                 ;    if (Spi0_rxCount < SIZE_SPI_BUF_RX) //     
                 ;    {
                 ;       Spi0_RX_buf[Spi0_rxBufTail] = data;//!    //   SPDR  
                 ;       Spi0_rxBufTail++;                    //    
                 ;      if (Spi0_rxBufTail == SIZE_BUF_RX)
                 ;      {
                 ;       Spi0_rxBufTail = 0;
                 ;      }
                 ;      Spi0_rxCount++;                      //   
                 ;    }
                 ;    */
                 ;///////////
                 ;
                 ;//////////TX
                 ;/*
                 ; if(Tmp != Spi0_txBufHead) // all transmitted
                 ;  {
                 ;  // SPDR = Spi0_TX_buf[Tmp & (SIZE_SPI_BUF_TX - 1)];
                 ;   ++Tmp;
                 ;   Spi0_txBufTail = Tmp;
                 ;   SPDR = Spi0_TX_buf[Tmp & (SIZE_SPI_BUF_TX - 1)];
                 ;  }
                 ;   */
                 ;/////////
                 ;
                 ;}
00095c 9109      	LD   R16,Y+
00095d 9119      	LD   R17,Y+
00095e 91e9      	LD   R30,Y+
00095f bfef      	OUT  SREG,R30
000960 91e9      	LD   R30,Y+
000961 91a9      	LD   R26,Y+
000962 9518      	RETI
                 ;
                 ;
                 ;
                 ;
                 ;
                 ;
                 ;
                 ;
                 ;
                 ;
                 ;/*
                 ;unsigned char spi(unsigned char data)
                 ;{
                 ;_ATXMEGA_SPI_.DATA=data;
                 ;while ((_ATXMEGA_SPI_.STATUS & SPI_IF_bm)==0);
                 ;return _ATXMEGA_SPI_.DATA;
                 ;}
                 ;
                 ;void spi_init(bool master_mode,bool lsb_first,SPI_MODE_t mode,bool clk2x,SPI_PRESCALER_t clock_div, unsigned char ss_pin)
                 ;{
                 ;if (master_mode)
                 ;   {
                 ;   // Init SS pin as output with wired AND and pull-up
                 ;   _ATXMEGA_SPI_PORT_.DIRSET=ss_pin;
                 ;   _ATXMEGA_SPI_PORT_.PIN4CTRL=PORT_OPC_WIREDANDPULL_gc;
                 ;
                 ;   // Set SS output to high
                 ;   _ATXMEGA_SPI_PORT_.OUTSET=ss_pin;
                 ;
                 ;   // SPI master mode
                 ;   _ATXMEGA_SPI_.CTRL=clock_div |                      // SPI prescaler.
                 ;                      (clk2x ? SPI_CLK2X_bm : 0) |     // SPI Clock double.
                 ;                      SPI_ENABLE_bm |                  // Enable SPI module.
                 ;                      (lsb_first ? SPI_DORD_bm : 0) |  // Data order.
                 ;                      SPI_MASTER_bm |                  // SPI master.
                 ;                      mode;                            // SPI mode.
                 ;
                 ;   // MOSI and SCK as output
                 ;   _ATXMEGA_SPI_PORT_.DIRSET=SPI_MOSI_bm | SPI_SCK_bm;
                 ;   }
                 ;else
                 ;   {
                 ;   // SPI slave mode
                 ;   _ATXMEGA_SPI_.CTRL=SPI_ENABLE_bm |                 // Enable SPI module.
                 ;                      (lsb_first ? SPI_DORD_bm : 0) | // Data order.
                 ;	                  mode;                           // SPI mode.
                 ;
                 ;   // MISO as output
                 ;   _ATXMEGA_SPI_PORT_.DIRSET=SPI_MISO_bm;
                 ;   };
                 ;// No interrupts, polled mode
                 ;_ATXMEGA_SPI_.INTCTRL=SPI_INTLVL_OFF_gc;
                 ;}
                 ;*/
                    .equ __i2c_port=0x1B ;PORTA
                    .equ __sda_bit=0
                    .equ __scl_bit=1
                 ;//***************************************************************************
                 ;//
                 ;//  Author(s)...: Vlad
                 ;//
                 ;//  Target(s)...: Mega
                 ;//
                 ;//  Compiler....:
                 ;//
                 ;//  Description.:  I2C
                 ;//
                 ;//  Data........:
                 ;//
                 ;//***************************************************************************
                 ;#include "I2C.h"
                 ;
                 ;
                 ;/*
                 ;TODO:
                 ;Hard/Software implementations
                 ;
                 ;*/
                 ;////////////////HARDWARE_TWI/I2C///////////////////////////
                 ;///////////////////////////////////////////////////////////
                 ;
                 ;void hard_twi_init(void){// TWI initialization
                 ;// Bit Rate: 400,000 kHz
                 ;TWBR=0x02;
                 ;// Two Wire Bus Slave Address: 0x0
                 ;// General Call Recognition: Off
                 ;TWAR=0x00;
                 ;// Generate Acknowledge Pulse: Off
                 ;// TWI Interrupt: On
                 ;TWCR = (1<<TWIE)|(1<<TWEN) ;
                 ;TWSR=0x00;
                 ;}
                 ;
                 ;
                 ;/*
                 ;void hard_twi_init(void);
                 ;void hard_twi_start(void);
                 ;void hard_twi_stop(void);
                 ;unsigned char hard_twi_read(unsigned char ack);
                 ;unsigned char hard_twi_write(unsigned char data);
                 ;*/
                 ;
                 ;void hard_twi_start() {
                 ;	TWCR = (1 << TWINT) | (1 << TWSTA) | (1 << TWEN); // send start condition
                 ;	while (!(TWCR & (1 << TWINT)));
                 ;    //     TWSTA
                 ;}
                 ;
                 ;void hard_twi_write_byte(char byte) {
                 ;	TWDR = byte;
                 ;	byte -> Y+0
                 ;	TWCR = (1 << TWINT) | (1 << TWEN); // start address transmission
                 ;	while (!(TWCR & (1 << TWINT)));
                 ;}
                 ;
                 ;char hard_twi_read_byte() {
                 ;	TWCR = (1 << TWINT) | (1 << TWEA) | (1 << TWEN); // start data reception, transmit ACK
                 ;	while (!(TWCR & (1 << TWINT)));
                 ;	return TWDR;
                 ;}
                 ;
                 ;char hard_twi_read_last_byte() {
                 ;	TWCR = (1 << TWINT) | (1 << TWEN); // start data reception
                 ;	while (!(TWCR & (1 << TWINT)));
                 ;	return TWDR;
                 ;}
                 ;
                 ;void hard_twi_stop() {
                 ;	  TWCR = (1 << TWINT) | (1 << TWSTO) | (1 << TWEN); // send stop condition
                 ;}
                 ;
                 ;uint8_t hard_twi_read_ACK(void)
                 ;{
                 ;    TWCR = (1<<TWINT)|(1<<TWEN)|(1<<TWEA);
                 ;    while ((TWCR & (1<<TWINT)) == 0);
                 ;    return TWDR;
                 ;}
                 ;//read byte with NACK
                 ;uint8_t hard_twi_read_NACK(void)
                 ;{
                 ;    TWCR = (1<<TWINT)|(1<<TWEN);
                 ;    while ((TWCR & (1<<TWINT)) == 0);
                 ;    return TWDR;
                 ;}
                 ;
                 ;uint8_t hard_twi_get_status(void)
                 ;{
                 ;    uint8_t status;
                 ;    status = TWSR & 0xF8;     //mask status
                 ;	status -> R17
                 ;    return status;
                 ;}
                 ;
                 ;/*
                 ;// Two Wire bus interrupt service routine
                 ;interrupt [TWI] void twi_isr(void)
                 ;{
                 ;
                 ;TWCR = (1<<TWINT) ;// At the end - clear interrupt flag
                 ;}
                 ;*/
                 
                 	.DSEG
                 ;#include "ADC.h"
                 ;
                 ;void ADC_init(void){ // ADC initialization  //Upd-6
                 
                 	.CSEG
                 _ADC_init:
                 ;PORTF=0x00; DDRF=0x00;
000963 940e 1347 	CALL SUBOPT_0xF
                 ;// ADC Clock frequency: 1000,000 kHz
                 ;// ADC Voltage Reference: Int., cap. on AREF
                 ;ADMUX=ADC_VREF_TYPE & 0xff;
000965 ece0      	LDI  R30,LOW(192)
000966 b9e7      	OUT  0x7,R30
                 ;ADCSRA=0x8C;
000967 e8ec      	LDI  R30,LOW(140)
000968 b9e6      	OUT  0x6,R30
                 ;}
000969 9508      	RET
                 ;
                 ;void adc_use (void)
                 ;{
                 ;  ADCSRA=0b11011111;  //
                 ;};
                 ;
                 ;
                 ;//-----------  -----------------   //Upd-7
                 ;void adc_calibrate (void)   //   Vref
                 ;{
                 _adc_calibrate:
                 ;  ADMUX &= 0xDF & 0x7F & 0xFE; ADMUX |= 0x40 | 0x0E;   // ADMUX:  10 , Vref=AVCC (5B), =1,23
00096a b1e7      	IN   R30,0x7
00096b 75ee      	ANDI R30,LOW(0x5E)
00096c b9e7      	OUT  0x7,R30
00096d b1e7      	IN   R30,0x7
00096e 64ee      	ORI  R30,LOW(0x4E)
00096f b9e7      	OUT  0x7,R30
                 ;  ADCSRA &= 0xDF & 0xFC; ADCSRA |= 0x80 | 0x40 | 0x04; // ADCSRA: . ,  , F=62 
000970 b1e6      	IN   R30,0x6
000971 7dec      	ANDI R30,LOW(0xDC)
000972 b9e6      	OUT  0x6,R30
000973 b1e6      	IN   R30,0x6
000974 6ce4      	ORI  R30,LOW(0xC4)
000975 b9e6      	OUT  0x6,R30
                 ;  for (volt=0, adc_calib_cnt=100; adc_calib_cnt>0; adc_calib_cnt--) // 100 
000976 e0e0      	LDI  R30,LOW(0)
000977 93e0 0e51 	STS  _volt,R30
000979 93e0 0e52 	STS  _volt+1,R30
00097b e6e4      	LDI  R30,LOW(100)
00097c e0f0      	LDI  R31,HIGH(100)
00097d 93e0 0e5b 	STS  _adc_calib_cnt,R30
00097f 93f0 0e5c 	STS  _adc_calib_cnt+1,R31
                 _0x146:
000981 91a0 0e5b 	LDS  R26,_adc_calib_cnt
000983 91b0 0e5c 	LDS  R27,_adc_calib_cnt+1
000985 940e 16b5 	CALL __CPW02
000987 f4f8      	BRSH _0x147
                 ;  {
                 ;    ADCSRA |= 0x40;        //   
000988 9a36      	SBI  0x6,6
                 ;    while (ADCSRA & 0x40);   //  
                 _0x148:
000989 9936      	SBIC 0x6,6
00098a cffe      	RJMP _0x148
                 ;    volt += ADCL;    //  8  
00098b b1e4      	IN   R30,0x4
00098c 940e 134d 	CALL SUBOPT_0x10
00098e 940e 1352 	CALL SUBOPT_0x11
000990 93e0 0e51 	STS  _volt,R30
000992 93f0 0e52 	STS  _volt+1,R31
                 ;    volt += ((int)ADCH << 8);    //   
000994 b1e5      	IN   R30,0x5
000995 2ffe      	MOV  R31,R30
000996 e0e0      	LDI  R30,0
000997 940e 134d 	CALL SUBOPT_0x10
000999 0fea      	ADD  R30,R26
00099a 1ffb      	ADC  R31,R27
00099b 93e0 0e51 	STS  _volt,R30
00099d 93f0 0e52 	STS  _volt+1,R31
                 ;  }                   // 100  
00099f e5ab      	LDI  R26,LOW(_adc_calib_cnt)
0009a0 e0be      	LDI  R27,HIGH(_adc_calib_cnt)
0009a1 91ed      	LD   R30,X+
0009a2 91fd      	LD   R31,X+
0009a3 9731      	SBIW R30,1
0009a4 93fe      	ST   -X,R31
0009a5 93ee      	ST   -X,R30
0009a6 cfda      	RJMP _0x146
                 _0x147:
                 ;  for (avcc=4750; avcc<5250; avcc++) // AVCC, 
0009a7 e8ee      	LDI  R30,LOW(4750)
0009a8 e1f2      	LDI  R31,HIGH(4750)
0009a9 93e0 0e59 	STS  _avcc,R30
0009ab 93f0 0e5a 	STS  _avcc+1,R31
                 _0x14C:
0009ad 91a0 0e59 	LDS  R26,_avcc
0009af 91b0 0e5a 	LDS  R27,_avcc+1
0009b1 38a2      	CPI  R26,LOW(0x1482)
0009b2 e1e4      	LDI  R30,HIGH(0x1482)
0009b3 07be      	CPC  R27,R30
0009b4 f010      	BRLO PC+3
0009b5 940c 0a02 	JMP _0x14D
                 ;  {
                 ;     adc_tmp = volt*avcc/1024; //   (1,23)
0009b7 91e0 0e59 	LDS  R30,_avcc
0009b9 91f0 0e5a 	LDS  R31,_avcc+1
0009bb 940e 134d 	CALL SUBOPT_0x10
0009bd 940e 15a3 	CALL __MULW12U
0009bf 940e 159e 	CALL __LSRW2
0009c1 2fef      	MOV  R30,R31
0009c2 e0f0      	LDI  R31,0
0009c3 93e0 0e55 	STS  _adc_tmp,R30
0009c5 93f0 0e56 	STS  _adc_tmp+1,R31
                 ;     if (adc_tmp > ION) {delta=adc_tmp-ION;}   // 
0009c7 91a0 0e55 	LDS  R26,_adc_tmp
0009c9 91b0 0e56 	LDS  R27,_adc_tmp+1
0009cb 31a3      	CPI  R26,LOW(0x513)
0009cc e0e5      	LDI  R30,HIGH(0x513)
0009cd 07be      	CPC  R27,R30
0009ce f038      	BRLO _0x14E
0009cf 91e0 0e55 	LDS  R30,_adc_tmp
0009d1 91f0 0e56 	LDS  R31,_adc_tmp+1
0009d3 51e2      	SUBI R30,LOW(1298)
0009d4 40f5      	SBCI R31,HIGH(1298)
0009d5 c008      	RJMP _0x231
                 ;     else delta=ION-adc_tmp;           // 
                 _0x14E:
0009d6 91a0 0e55 	LDS  R26,_adc_tmp
0009d8 91b0 0e56 	LDS  R27,_adc_tmp+1
0009da e1e2      	LDI  R30,LOW(1298)
0009db e0f5      	LDI  R31,HIGH(1298)
0009dc 1bea      	SUB  R30,R26
0009dd 0bfb      	SBC  R31,R27
                 _0x231:
0009de 93e0 0e53 	STS  _delta,R30
0009e0 93f0 0e54 	STS  _delta+1,R31
                 ;     if (delta < d){d=delta; vref=avcc;} //    -        Vref
0009e2 91e0 0e57 	LDS  R30,_d
0009e4 91f0 0e58 	LDS  R31,_d+1
0009e6 91a0 0e53 	LDS  R26,_delta
0009e8 91b0 0e54 	LDS  R27,_delta+1
0009ea 17ae      	CP   R26,R30
0009eb 07bf      	CPC  R27,R31
0009ec f480      	BRSH _0x150
0009ed 91e0 0e53 	LDS  R30,_delta
0009ef 91f0 0e54 	LDS  R31,_delta+1
0009f1 93e0 0e57 	STS  _d,R30
0009f3 93f0 0e58 	STS  _d+1,R31
0009f5 91e0 0e59 	LDS  R30,_avcc
0009f7 91f0 0e5a 	LDS  R31,_avcc+1
0009f9 93e0 0e4f 	STS  _vref,R30
0009fb 93f0 0e50 	STS  _vref+1,R31
                 ;  }                                      //   ,     Vref
                 _0x150:
0009fd e5a9      	LDI  R26,LOW(_avcc)
0009fe e0be      	LDI  R27,HIGH(_avcc)
0009ff 940e 1317 	CALL SUBOPT_0x8
000a01 cfab      	RJMP _0x14C
                 _0x14D:
                 ;}                 //   
000a02 9508      	RET
                 ;
                 ;uint16_t adc_get_volt(void)
                 ;{
                 ;   return vref-adc_result*vref/1024;
                 ;}
                 ;
                 ;/*
                 ;// ,=AVR.  8=, , 9, 2005      =1
                 ;//Make: avr83,atmega8,Level=2,VMLab,SRC=$(TARGET).c lcd.c =2
                 ;//: SUT0=CKSEL3=CKSEL2=CKSEL1="0" ( 1 )  =3
                 ;#include <avr/io.h>             // - =4
                 ;#define RIZM 200  // .    =5
                 ;#define ION 1298 //   (1,23)   =6
                 ;extern void lcd_com(unsigned char p);   //   =7
                 ;extern void lcd_dat(unsigned char p);   //   =8
                 ;extern void lcd_init(void);           //  =9
                 ;unsigned char t0[]=" ==WATTMETER==          mWt     "; //=10
                 ;unsigned long vref=0,volt,watt,delta,i,d=200,avcc;     //=11
                 ;unsigned int a;                //  =12
                 ;//-----------  ----------------- =13
                 ;void calib (void)   //   Vref =14
                 ;{ // ADMUX:  10 , Vref=AVCC (5B), =1,23 =15
                 ;        ADMUX &= 0xDF & 0x7F & 0xFE; ADMUX |= 0x40 | 0x0E;   //=16
                 ;// ADCSRA: . ,  , F=62   =17
                 ;        ADCSRA &= 0xDF & 0xFC; ADCSRA |= 0x80 | 0x40 | 0x04; //=18
                 ;  for (volt=0, a=100; a>0; a--) // 100  =19
                 ;  {    ADCSRA |= 0x40;        //    =20
                 ;          while (ADCSRA & 0x40);   //   =21
                 ;          volt += ADCL;    //  8   =22
                 ;    volt += ((int)ADCH << 8);    //    =23
                 ;        }                   // 100   =24
                 ;        for (avcc=4750; avcc<5250; avcc++) // AVCC,  =25
                 ;  { i = volt*avcc/102400; //   (1,23) =26
                 ;          if (i > ION) delta=i-ION;   //  =27
                 ;          else delta=ION-i;           //  =28
                 ;          if (delta < d)    //    =29
                 ;    { d=delta;    //    =30
                 ;      vref=avcc; //   Vref =31
                 ;    }              //    =32
                 ;  }      //    Vref =33
                 ;}                 //    =34
                 ;//================ ==================== =35
                 ;int main(void)               //   =36
                 ;{ PORTB = DDRD = 0xFF; //=  , D= =37
                 ;  PORTC = 0xF0; DDRC = 0x05;   //PC0, PC2   .0 =38
                 ;  lcd_init();          //  (4 , 162) =39
                 ;  for (lcd_com(0x80), a=0; a<32; a++)  //  =40
                 ;        { if (a==16) lcd_com(0xC0); //    =41
                 ;          lcd_dat(t0[a]);             //   =42
                 ;        }       //    WATTMETER =43
                 ;        calib(); //     1,23 =44
                 ;        ADMUX &= 0xF3; ADMUX |= 0x03;   // -3 =45
                 ;        ADCSRA |= 0x20 | 0x40;   //    =46
                 ;        while (1)                           //  =47
                 ;        { for (a=65000; a>0; a--);       //   =48
                 ;          volt = ADCL;     //  8   =49
                 ;    volt += ((int)ADCH << 8);    //    =50
                 ;          watt=(vref-volt*vref/1024)*(volt*vref/1024)/RIZM; // =51
                 ;                lcd_com(0xC4);               //   =52
                 ;                lcd_dat(watt/1000 + 0x30); //  () =53
                 ;				lcd_dat(',');	lcd_dat((watt/100)%10 +0x30); //0,1 =54
                 ;		}                     //     =55
                 ;}              //WinAVR-20050214,   1342  =56
                 ;
                 ;
                 ;
                 ;//   (),=AVR.  9=, , 10-2005 =1
                 ;//Make: avr91,atmega8,Level=2,VMLab,SRC=$(TARGET).c lcd.c =2
                 ;//: SUT0=CKSEL3=CKSEL1=CKSEL0="0" ( 8 )  =3
                 ;#include <avr/io.h>             // - =4
                 ;extern void lcd_com(unsigned char p);   //   =5
                 ;extern void lcd_dat(unsigned char p);   //   =6
                 ;extern void lcd_init(void);           //  =7
                 ;unsigned char t[]="        c/e ";    //  =8
                 ;//================ ===================== =9
                 ;int main(void)               //   =10
                 ;{ unsigned char a, b, c, scan, ur, h;         // =11
                 ;  unsigned int izm, d, k;       //   =12
                 ;		unsigned int osc[32];   //   =13
                 ;		PORTB = DDRD = 0xFF; //=  , D= =14
                 ;  PORTC = 0xC2; DDRC = 0x05;   //PC0, PC2   .0 =15
                 ;		ADMUX &= 0x7F; ADMUX |= 0x20 | 0x40;  //8-10 , AVCC =16
                 ;// ADCSRA: ., . ., F=1  =17
                 ;		ADCSRA &= 0xFB; ADCSRA |= 0x80 | 0x40 | 0x20 | 0x03; //=18
                 ;		lcd_init();          //  (4 , 162) =19
                 ;		lcd_com(0x40); lcd_dat(0x00); //  =20
                 ;		for (a=1; a<63; a++)  // 8   =21
                 ;		{ if (a%7 == 0) lcd_dat(0x1F);      //  5  =22
                 ;	   else lcd_dat(0x00);       // ,   =23
                 ;		}       //  62   =24
                 ;		lcd_dat(0x00); // (64-)   =25
                 ;		for (lcd_com(0xC0), a=0; a<16; a++) lcd_dat(t[a]);  // =26
                 ;		while (1)                 //   =27
                 ;		{ ADMUX &=0xF5; ADMUX |=0x05;     //-5,  =28
                 ;		  for (a=5; a>0; a--) for (d=60000; d>0; d--);	// =29
                 ;				scan = (ADCH <= 5)? 1 : (ADCH - 4); //,  =30
                 ;				ADMUX &=0xF4; ADMUX |=0x04; //-4,   =31
                 ;				lcd_com(0xC2);               //   =32
                 ;				for (k=13*scan, d=10000, b=5; b > 0; b--, d=d/10) // =33
                 ;    { lcd_dat(((k / d)%10) + 0x30); // .  =34
                 ;    }  //  5      =35
                 ;				ur = (ADCH <= 10)? 0 : ADCH; // .,  =36
                 ;		  ADMUX &= 0xF3; ADMUX |= 0x03; //-3,  . =37
                 ;				for(lcd_com(0x80), a=0; a<32; a++)   //32   =38
                 ;				{ for (izm=0, b=scan; b > 0; b--)  //  =39
                 ;						{ while (!(ADCSRA & 0x10));   //  =40
                 ;		      ADCSRA |= 0x10;   //   =41
                 ;        izm += ADCH;             //  =42
                 ;						}                //    =43
                 ;						osc[a] = izm;        //   =44
                 ;				}              	// 32    =45
                 ;				lcd_com(0x0D);               //   =46
                 ;				if (!ur)	for (a=0; a<16; a++) lcd_dat((osc[a]/scan)/32);
                 ;				else  //     =48
                 ;				{	if (ur < 0xF0)    //    =49
                 ;				  { for (a=b=c=h=0; a<16; a++) //  =50
                 ;        { if (bit_is_set(PINB,PB0)) c=1; // SB1(+) =51
                 ;								  else b=1;   //   <+>  <-> =52
                 ;								  if((osc[a+b]/scan<(ur-3))&&(osc[a+c]/scan>(ur+3)))
                 ;								  { h=a; a=32;       //    =54
                 ;										}            //   =55
                 ;						  }     //    =56
                 ;						  for (a=h; a<(h+16); a++) lcd_dat((osc[a]/scan)/32);
                 ;						}  //     =58
                 ;						else lcd_com(0x0C);  //.    =59
                 ;				}        //    =60
                 ;		}               //      =61
                 ;}               //WinAVR-20050214,   882  =62
                 ;
                 ;
                 ;
                 ;// ,=AVR.  10=,  11-2005 =1
                 ;//Make:avr101,atmega8,Level=2,VMLab,SRC=$(TARGET).c lcd.c =2
                 ;//: SUT0=CKSEL3=CKSEL2=CKSEL1="0" ( 1 )  =3
                 ;#include <avr/io.h>             // - =4
                 ;extern void lcd_com(unsigned char p);   //   =5
                 ;extern void lcd_dat(unsigned char p);   //   =6
                 ;extern void lcd_init(void);           //  =7
                 ;#define TIME 30 //     =8
                 ;unsigned char t[]="Cap epe";     //  =9
                 ;//================ ==================== =10
                 ;int main(void)               //   =11
                 ;{ unsigned char u1[450], u2[450]; //  .=12
                 ;		unsigned int a, b, c, d, h=0;        //  =13
                 ;  PORTB = DDRD = 0xFF; //=  , D= =14
                 ;  PORTC = 0xC2; DDRC = 0x05;   //PC0, PC2   .0 =15
                 ;		ADMUX &= 0x7F; ADMUX |= 0x20 | 0x40;  //8-10 , AVCC =16
                 ;// ADCSRA:  , , F=125  =17
                 ;		ADCSRA &= 0xDF & 0xFB; ADCSRA |= 0x80 | 0x40 | 0x03; //=18
                 ;		lcd_init();          //  (4 , 162) =19
                 ;		lcd_com(0x40); lcd_dat(0x00); //  =20
                 ;		for (a=1; a<63; a++)  // 8   =21
                 ;		{ if (a%7 == 0) lcd_dat(0x1F);      //  5  =22
                 ;	   else lcd_dat(0x00);       // ,   =23
                 ;		}       //  62   =24
                 ;		lcd_dat(0x00); // (64-)   =25
                 ;		for(lcd_com(0x80),a=0; a<15; a++) lcd_dat(t[a]); // =26
                 ;		do  //    U  4  =27
                 ;		{ ADMUX &=0xF3; ADMUX |=0x03; ADCSRA |=0x40; //-3 =28
                 ;		  while (ADCSRA & 0x40);   //   =29
                 ;		} while (ADCH > 0xCC); //,   > 4  =30
                 ;		lcd_com(0x0C); //     =31
                 ;		for (a=0; a<450; a++) //    =32
                 ;		{ for (c=d=0, b=TIME; b>0; b--)   //  =33
                 ;		  { ADMUX &=0xF4; ADMUX |=0x04; ADCSRA |=0x40; //.4 =34
                 ;		    while (ADCSRA & 0x40); //   =35
                 ;		    c += ADCH;  //    -4 =36
                 ;				  ADMUX &=0xF5; ADMUX |=0x05; ADCSRA |=0x40; //.5 =37
                 ;		    while (ADCSRA & 0x40); //   =38
                 ;		    d += ADCH;  //    -5 =39
                 ;				}         //    -4  -5 =40
                 ;				u1[a] = c/(TIME*32);  //   U1 =41
                 ;				u2[a] = d/(TIME*32);  //   U2 =42
                 ;		}         //    U1, U2 =43
                 ;  while (1) //  ,  -  =44
                 ;		{ lcd_com(0x80);  //     =45
                 ;		  for(a=h; a < h+15; a++) lcd_dat(u1[a]);  // U1 =46
                 ;				lcd_com(0xC0);   //     =47
                 ;				for(a=h; a < h+15; a++) lcd_dat(u2[a]);  // U2 =48
                 ;				lcd_dat(0x30 + h/15);  //    =49
                 ;				if (bit_is_clear(PINB,PB0))     //  SB1 =50
                 ;    { if ((h += 15) > 435) h=0;  //   =51
                 ;      for (c=65000; c>0; c--);  //  =52
                 ;				}         //     =53
                 ;				if (bit_is_clear(PINB,PB1))     //  SB2 =54
                 ;    { h = (h < 15)? 435 : (h-15); //  . =55
                 ;      for (c=65000; c>0; c--);  //  =56
                 ;				}         //     =57
                 ;		}               //     =58
                 ;}               //WinAVR-20050214,   752  =59
                 ;
                 ;*/
                 ;/**** A V R  A P P L I C A T I O N  NOTE 1 3 4 **************************
                 ; *
                 ; * Title:           Real Time Clock
                 ; * Version:         2.00
                 ; * Last Updated:    24.09.2013
                 ; * Target:          ATmega128 (All AVR Devices with secondary external oscillator)
                 ; *
                 ; * Support E-mail:  avr@atmel.com
                 ; *
                 ; * Description
                 ; * This application note shows how to implement a Real Time Clock utilizing a secondary
                 ; * external oscilator. Included a test program that performs this function, which keeps
                 ; * track of time, date, month, and year with auto leap-year configuration. 8 LEDs are used
                 ; * to display the RTC. The 1st LED flashes every second, the next six represents the
                 ; * minute, and the 8th LED represents the hour.
                 ; *
                 ; ******************************************************************************************/
                 ;
                 ;#ifdef _GCC_
                 ;#include <avr/io.h>
                 ;#include <avr/interrupt.h>
                 ;#include <avr/sleep.h>
                 ;#else
                 ;
                 ;#endif
                 ;
                 ;	time t;
                 ;/*
                 ;int main(void)
                 ;{
                 ;    rtc_init();	//Initialize registers and configure RTC.
                 ;
                 ;	while(1)
                 ;	{
                 ;		sleep_mode();										//Enter sleep mode. (Will wake up from timer overflow interrupt)
                 ;		TCCR0=(1<<CS00)|(1<<CS02);							//Write dummy value to control register
                 ;		while(ASSR&((1<<TCN0UB)|(1<<OCR0UB)|(1<<TCR0UB)));	//Wait until TC0 is updated
                 ;	}
                 ;}
                 ;*/
                 ;static void rtc_init(void)
                 ;{
                 _rtc_init_G000:
                 ;   	TIMSK &= ~((1<<TOIE0)|(1<<OCIE0));						//Make sure all TC0 interrupts are disabled
000a03 b7e7      	IN   R30,0x37
000a04 7fec      	ANDI R30,LOW(0xFC)
000a05 bfe7      	OUT  0x37,R30
                 ;	ASSR |= (1<<AS0);										//set Timer/counter0 to be asynchronous from the CPU clock
000a06 b7e0      	IN   R30,0x30
000a07 60e8      	ORI  R30,8
000a08 bfe0      	OUT  0x30,R30
                 ;															//with a second external clock (32,768kHz)driving it.
                 ;	TCNT0 =0;												//Reset timer
000a09 e0e0      	LDI  R30,LOW(0)
000a0a bfe2      	OUT  0x32,R30
                 ;	TCCR0 =(1<<CS00)|(1<<CS02);								//Prescale the timer to be clock source/128 to make it
000a0b e0e5      	LDI  R30,LOW(5)
000a0c bfe3      	OUT  0x33,R30
                 ;															//exactly 1 second for every overflow to occur
                 ;	while (ASSR & ((1<<TCN0UB)|(1<<OCR0UB)|(1<<TCR0UB))){ }	//Wait until TC0 is updated
                 _0x151:
000a0d b7e0      	IN   R30,0x30
000a0e 70e7      	ANDI R30,LOW(0x7)
000a0f f7e9      	BRNE _0x151
                 ;	TIMSK |= (1<<TOIE0);									//Set 8-bit Timer/Counter0 Overflow Interrupt Enable
000a10 b7e7      	IN   R30,0x37
000a11 60e1      	ORI  R30,1
000a12 bfe7      	OUT  0x37,R30
                 ;#asm("sei")													//Set the Global Interrupt Enable Bit
000a13 9478      	sei
                 ;}
000a14 9508      	RET
                 ;
                 ;interrupt [TIM0_OVF] void timer0_ovf_isr(void)
                 ;{
                 _timer0_ovf_isr:
000a15 940e 1356 	CALL SUBOPT_0x12
                 ;	if (++t.second==60)        //keep track of time, date, month, and year
000a17 e5ad      	LDI  R26,LOW(_t)
000a18 e0be      	LDI  R27,HIGH(_t)
000a19 e080      	LDI  R24,0
000a1a 940e 1364 	CALL SUBOPT_0x13
000a1c f011      	BREQ PC+3
000a1d 940c 0ab3 	JMP _0x154
                 ;	{
                 ;		t.second=0;
000a1f 91e0 0e5d 	LDS  R30,_t
000a21 78e0      	ANDI R30,LOW(0x80)
000a22 93e0 0e5d 	STS  _t,R30
                 ;		if (++t.minute==60)
000a24 e5ad      	LDI  R26,LOW(_t)
000a25 e0be      	LDI  R27,HIGH(_t)
000a26 e087      	LDI  R24,7
000a27 940e 1364 	CALL SUBOPT_0x13
000a29 f011      	BREQ PC+3
000a2a 940c 0ab3 	JMP _0x155
                 ;		{
                 ;			t.minute=0;
000a2c 91e0 0e5d 	LDS  R30,_t
000a2e 91f0 0e5e 	LDS  R31,_t+1
000a30 77ef      	ANDI R30,LOW(0xC07F)
000a31 7cf0      	ANDI R31,HIGH(0xC07F)
000a32 93e0 0e5d 	STS  _t,R30
000a34 93f0 0e5e 	STS  _t+1,R31
                 ;			if (++t.hour==24)
000a36 e5ad      	LDI  R26,LOW(_t)
000a37 e0be      	LDI  R27,HIGH(_t)
000a38 e08e      	LDI  R24,14
000a39 940e 1372 	CALL SUBOPT_0x14
                +
000a3b 31e8     +CPI R30 , LOW ( 0x18 )
000a3c e0a0     +LDI R26 , HIGH ( 0x18 )
000a3d 07fa     +CPC R31 , R26
000a3e e0a0     +LDI R26 , BYTE3 ( 0x18 )
000a3f 076a     +CPC R22 , R26
000a40 e0a0     +LDI R26 , BYTE4 ( 0x18 )
000a41 077a     +CPC R23 , R26
                 	__CPD1N 0x18
000a42 f011      	BREQ PC+3
000a43 940c 0ab3 	JMP _0x156
                 ;			{
                 ;				t.hour=0;
000a45 e5ad      	LDI  R26,LOW(_t)
000a46 e0be      	LDI  R27,HIGH(_t)
000a47 940e 1611 	CALL __GETD1P_INC
                +
000a49 7fef     +ANDI R30 , LOW ( 0xFFF03FFF )
000a4a 73ff     +ANDI R31 , HIGH ( 0xFFF03FFF )
000a4b 7f60     +ANDI R22 , BYTE3 ( 0xFFF03FFF )
000a4c 7f7f     +ANDI R23 , BYTE4 ( 0xFFF03FFF )
                 	__ANDD1N 0xFFF03FFF
000a4d 940e 1616 	CALL __PUTDP1_DEC
                 ;				if (++t.date==32)
000a4f e5ad      	LDI  R26,LOW(_t)
000a50 e0be      	LDI  R27,HIGH(_t)
000a51 e184      	LDI  R24,20
000a52 940e 1372 	CALL SUBOPT_0x14
                +
000a54 32e0     +CPI R30 , LOW ( 0x20 )
000a55 e0a0     +LDI R26 , HIGH ( 0x20 )
000a56 07fa     +CPC R31 , R26
000a57 e0a0     +LDI R26 , BYTE3 ( 0x20 )
000a58 076a     +CPC R22 , R26
000a59 e0a0     +LDI R26 , BYTE4 ( 0x20 )
000a5a 077a     +CPC R23 , R26
                 	__CPD1N 0x20
000a5b f159      	BREQ _0x232
                 ;				{
                 ;					t.month++;
                 ;					t.date=1;
                 ;				}
                 ;				else if (t.date==31)
000a5c 940e 1379 	CALL SUBOPT_0x15
000a5e 31ef      	CPI  R30,LOW(0x1F)
000a5f f471      	BRNE _0x159
                 ;				{
                 ;					if ((t.month==4) || (t.month==6) || (t.month==9) || (t.month==11))
000a60 91e0 0e60 	LDS  R30,_t+3
000a62 73ec      	ANDI R30,LOW(0x3C)
000a63 31e0      	CPI  R30,LOW(0x10)
000a64 f031      	BREQ _0x15B
000a65 31e8      	CPI  R30,LOW(0x18)
000a66 f021      	BREQ _0x15B
000a67 32e4      	CPI  R30,LOW(0x24)
000a68 f011      	BREQ _0x15B
000a69 32ec      	CPI  R30,LOW(0x2C)
000a6a f411      	BRNE _0x15A
                 _0x15B:
                 ;					{
                 ;						t.month++;
000a6b 940e 1381 	CALL SUBOPT_0x16
                 ;						t.date=1;
                 ;					}
                 ;				}
                 _0x15A:
                 ;				else if (t.date==30)
000a6d c02d      	RJMP _0x15D
                 _0x159:
000a6e 940e 1379 	CALL SUBOPT_0x15
000a70 31ee      	CPI  R30,LOW(0x1E)
000a71 f441      	BRNE _0x15E
                 ;				{
                 ;					if(t.month==2)
000a72 91e0 0e60 	LDS  R30,_t+3
000a74 73ec      	ANDI R30,LOW(0x3C)
000a75 30e8      	CPI  R30,LOW(0x8)
000a76 f411      	BRNE _0x15F
                 ;					{
                 ;						t.month++;
000a77 940e 1381 	CALL SUBOPT_0x16
                 ;						t.date=1;
                 ;					}
                 ;				}
                 _0x15F:
                 ;				else if (t.date==29)
000a79 c021      	RJMP _0x160
                 _0x15E:
000a7a 940e 1379 	CALL SUBOPT_0x15
000a7c 31ed      	CPI  R30,LOW(0x1D)
000a7d f4e9      	BRNE _0x161
                 ;				{
                 ;					if((t.month==2) && (not_leap()))
000a7e 91e0 0e60 	LDS  R30,_t+3
000a80 73ec      	ANDI R30,LOW(0x3C)
000a81 30e8      	CPI  R30,LOW(0x8)
000a82 f419      	BRNE _0x163
000a83 d030      	RCALL _not_leap_G000
000a84 30e0      	CPI  R30,0
000a85 f409      	BRNE _0x164
                 _0x163:
000a86 c014      	RJMP _0x162
                 _0x164:
                 ;					{
                 ;						t.month++;
                 _0x232:
000a87 e5ad      	LDI  R26,LOW(_t)
000a88 e0be      	LDI  R27,HIGH(_t)
000a89 e18a      	LDI  R24,26
                +
000a8a e0ef     +LDI R30 , LOW ( 0xF )
000a8b e0f0     +LDI R31 , HIGH ( 0xF )
000a8c e060     +LDI R22 , BYTE3 ( 0xF )
000a8d e070     +LDI R23 , BYTE4 ( 0xF )
                 	__GETD1N 0xF
000a8e 940e 166e 	CALL __POSTINC_BITFD
                 ;						t.date=1;
                +
000a90 91e0 0e5f+LDS R30 , _t + ( 2 )
000a92 91f0 0e60+LDS R31 , _t + ( 2 ) + 1
                 	__GETW1MN _t,2
000a94 70ef      	ANDI R30,LOW(0xFC0F)
000a95 7ffc      	ANDI R31,HIGH(0xFC0F)
000a96 61e0      	ORI  R30,0x10
                +
000a97 93e0 0e5f+STS _t + ( 2 ) , R30
000a99 93f0 0e60+STS _t + ( 2 ) + 1 , R31
                 	__PUTW1MN _t,2
                 ;					}
                 ;				}
                 _0x162:
                 ;				if (t.month==13)
                 _0x161:
                 _0x160:
                 _0x15D:
000a9b 91e0 0e60 	LDS  R30,_t+3
000a9d 73ec      	ANDI R30,LOW(0x3C)
000a9e 33e4      	CPI  R30,LOW(0x34)
000a9f f499      	BRNE _0x165
                 ;				{
                 ;					t.month=1;
                +
000aa0 91e0 0e5f+LDS R30 , _t + ( 2 )
000aa2 91f0 0e60+LDS R31 , _t + ( 2 ) + 1
                 	__GETW1MN _t,2
000aa4 7cf3      	ANDI R31,HIGH(0xC3FF)
000aa5 60f4      	ORI  R31,HIGH(0x400)
                +
000aa6 93e0 0e5f+STS _t + ( 2 ) , R30
000aa8 93f0 0e60+STS _t + ( 2 ) + 1 , R31
                 	__PUTW1MN _t,2
                 ;					t.year++;
000aaa e5ad      	LDI  R26,LOW(_t)
000aab e0be      	LDI  R27,HIGH(_t)
000aac e18e      	LDI  R24,30
                +
000aad e0e3     +LDI R30 , LOW ( 0x3 )
000aae e0f0     +LDI R31 , HIGH ( 0x3 )
000aaf e060     +LDI R22 , BYTE3 ( 0x3 )
000ab0 e070     +LDI R23 , BYTE4 ( 0x3 )
                 	__GETD1N 0x3
000ab1 940e 166e 	CALL __POSTINC_BITFD
                 ;				}
                 ;			}
                 _0x165:
                 ;		}
                 _0x156:
                 ;	}
                 _0x155:
                 ;	//PORTB=~(((t.second&0x01)|t.minute<<1)|t.hour<<7);
                 ;}
                 _0x154:
000ab3 c149      	RJMP _0x245
                 ;
                 ;static char not_leap(void)      //check for leap year
                 ;{
                 _not_leap_G000:
                 ;	if (!(t.year%100))
000ab4 940e 1396 	CALL SUBOPT_0x17
                +
000ab6 e6e4     +LDI R30 , LOW ( 0x64 )
000ab7 e0f0     +LDI R31 , HIGH ( 0x64 )
000ab8 e060     +LDI R22 , BYTE3 ( 0x64 )
000ab9 e070     +LDI R23 , BYTE4 ( 0x64 )
                 	__GETD1N 0x64
000aba 940e 1609 	CALL __MODD21U
000abc 940e 16b1 	CALL __CPD10
000abe f449      	BRNE _0x166
                 ;	{
                 ;		return (char)(t.year%400);
000abf 940e 1396 	CALL SUBOPT_0x17
                +
000ac1 e9e0     +LDI R30 , LOW ( 0x190 )
000ac2 e0f1     +LDI R31 , HIGH ( 0x190 )
000ac3 e060     +LDI R22 , BYTE3 ( 0x190 )
000ac4 e070     +LDI R23 , BYTE4 ( 0x190 )
                 	__GETD1N 0x190
000ac5 940e 1609 	CALL __MODD21U
000ac7 9508      	RET
                 ;	}
                 ;	else
                 _0x166:
                 ;	{
                 ;		return (char)(t.year%4);
000ac8 91e0 0e60 	LDS  R30,_t+3
000aca 95e2      	SWAP R30
000acb 70ef      	ANDI R30,0xF
000acc 95e6      	LSR  R30
000acd 95e6      	LSR  R30
                +
000ace 70e3     +ANDI R30 , LOW ( 0x3 )
000acf 70f0     +ANDI R31 , HIGH ( 0x3 )
000ad0 7060     +ANDI R22 , BYTE3 ( 0x3 )
000ad1 7070     +ANDI R23 , BYTE4 ( 0x3 )
                 	__ANDD1N 0x3
000ad2 9508      	RET
                 ;	}
                 ;}
000ad3 9508      	RET
                 ;#include "D_IIC_ultimate/IIC_ultimate.h"
                 ;
                 ;
                 ;void DoNothing(void);
                 ;
                 ;uint8_t i2c_Do;								//    IIC
                 ;uint8_t i2c_InBuff[i2c_MasterBytesRX];		//      Slave
                 ;uint8_t i2c_OutBuff[i2c_MasterBytesTX];		//      Slave
                 ;uint8_t i2c_SlaveIndex;						//   Slave
                 ;
                 ;
                 ;uint8_t i2c_Buffer[i2c_MaxBuffer];			//       Master
                 ;uint8_t i2c_index;							//   
                 ;uint8_t i2c_ByteCount;						//   
                 ;
                 ;uint8_t i2c_SlaveAddress;						//  
                 ;
                 ;uint8_t i2c_PageAddress[i2c_MaxPageAddrLgth];	//    (   sawsarp)
                 ;uint8_t i2c_PageAddrIndex;						//    
                 ;uint8_t i2c_PageAddrCount;						//        Slave
                 ;
                 ;											//    :
                 ;IIC_F MasterOutFunc = &DoNothing;			//   Master 
                 
                 	.DSEG
                 ;IIC_F SlaveOutFunc 	= &DoNothing;			//    Slave
                 ;IIC_F ErrorOutFunc 	= &DoNothing;			//       Master
                 ;
                 ;/*
                 ;uint8_t 	WorkLog[100];						//   
                 ;uint8_t		WorkIndex=0;						//  
                 ;*/
                 ;
                 ;// Two Wire bus interrupt service routine
                 ;interrupt [TWI] void twi_isr(void)								//  TWI   .
                 ;{
                 
                 	.CSEG
                 _twi_isr:
000ad4 940e 1356 	CALL SUBOPT_0x12
                 ;#ifdef DEBUG
                 ;//PORTB ^= 0x01;								//   ,        TWI
                 ;//  .        ,  .
                 ;//    UART  
                 ;if (LogIndex <LogBufSize)							//    
                 ;{
                 ;	if (TWSR)								//  ?
                 ;		{
                 ;		WorkLog[LogIndex]= TWSR;			//    
                 ;		LogIndex++;
                 ;		}
                 ;	else
                 ;		{
                 ;		WorkLog[LogIndex]= 0xFF;			//      FF
                 ;		LogIndex++;
                 ;		}
                 ;}
                 ;#endif
                 ;
                 ;switch(TWSR & 0xF8)						//   
000ad6 91e0 0071 	LDS  R30,113
000ad8 7fe8      	ANDI R30,LOW(0xF8)
                 ;	{
                 ;	case 0x00:	// Bus Fail ( )
000ad9 30e0      	CPI  R30,0
000ada f431      	BRNE _0x16E
                 ;			{
                 ;			i2c_Do |= i2c_ERR_BF;
000adb 91e0 0e67 	LDS  R30,_i2c_Do
000add 60e1      	ORI  R30,1
000ade 940e 13a3 	CALL SUBOPT_0x18
                 ;			TWCR = 0<<TWSTA|1<<TWSTO|1<<TWINT|i2c_i_am_slave<<TWEA|1<<TWEN|1<<TWIE;  	// Go!
                 ;			MACRO_i2c_WhatDo_ErrorOut
                 ;			break;
000ae0 c11c      	RJMP _0x16D
                 ;			}
                 ;
                 ;	case 0x08:	//  ,   :
                 _0x16E:
000ae1 30e8      	CPI  R30,LOW(0x8)
000ae2 f481      	BRNE _0x16F
                 ;			{
                 ;			if( (i2c_Do & i2c_type_msk)== i2c_sarp)							//    
000ae3 91e0 0e67 	LDS  R30,_i2c_Do
000ae5 70ec      	ANDI R30,LOW(0xC)
000ae6 f421      	BRNE _0x170
                 ;				{
                 ;				i2c_SlaveAddress |= 0x01;									//  Addr+R
000ae7 91e0 0e70 	LDS  R30,_i2c_SlaveAddress
000ae9 60e1      	ORI  R30,1
000aea c003      	RJMP _0x233
                 ;				}
                 ;			else															// 
                 _0x170:
                 ;				{
                 ;				i2c_SlaveAddress &= 0xFE;									//  Addr+W
000aeb 91e0 0e70 	LDS  R30,_i2c_SlaveAddress
000aed 7fee      	ANDI R30,0xFE
                 _0x233:
000aee 93e0 0e70 	STS  _i2c_SlaveAddress,R30
                 ;				}
                 ;
                 ;			TWDR = i2c_SlaveAddress;													//  
000af0 940e 13ae 	CALL SUBOPT_0x19
                 ;			TWCR = 0<<TWSTA|0<<TWSTO|1<<TWINT|i2c_i_am_slave<<TWEA|1<<TWEN|1<<TWIE;  	// Go!
                 ;			break;
000af2 c10a      	RJMP _0x16D
                 ;			}
                 ;
                 ;	case 0x10:	//   ,   
                 _0x16F:
000af3 31e0      	CPI  R30,LOW(0x10)
000af4 f479      	BRNE _0x172
                 ;			{
                 ;			if( (i2c_Do & i2c_type_msk) == i2c_sawsarp)						//    
000af5 940e 13b6 	CALL SUBOPT_0x1A
000af7 f421      	BRNE _0x173
                 ;				{
                 ;				i2c_SlaveAddress |= 0x01;									//  Addr+R
000af8 91e0 0e70 	LDS  R30,_i2c_SlaveAddress
000afa 60e1      	ORI  R30,1
000afb c003      	RJMP _0x234
                 ;				}
                 ;			else
                 _0x173:
                 ;				{
                 ;				i2c_SlaveAddress &= 0xFE;									//  Addr+W
000afc 91e0 0e70 	LDS  R30,_i2c_SlaveAddress
000afe 7fee      	ANDI R30,0xFE
                 _0x234:
000aff 93e0 0e70 	STS  _i2c_SlaveAddress,R30
                 ;				}
                 ;
                 ;			// To Do:    
                 ;
                 ;			TWDR = i2c_SlaveAddress;													//  
000b01 940e 13ae 	CALL SUBOPT_0x19
                 ;			TWCR = 0<<TWSTA|0<<TWSTO|1<<TWINT|i2c_i_am_slave<<TWEA|1<<TWEN|1<<TWIE;  	// Go!
                 ;			break;
000b03 c0f9      	RJMP _0x16D
                 ;			}
                 ;
                 ;	case 0x18:	//   SLA+W  ACK,  :
                 _0x172:
000b04 31e8      	CPI  R30,LOW(0x18)
000b05 f479      	BRNE _0x175
                 ;			{
                 ;			if( (i2c_Do & i2c_type_msk) == i2c_sawp)						//    
000b06 91e0 0e67 	LDS  R30,_i2c_Do
000b08 70ec      	ANDI R30,LOW(0xC)
000b09 30e4      	CPI  R30,LOW(0x4)
000b0a f411      	BRNE _0x176
                 ;				{
                 ;				TWDR = i2c_Buffer[i2c_index];								//   
000b0b 940e 13bb 	CALL SUBOPT_0x1B
                 ;				i2c_index++;												//   
                 ;				TWCR = 0<<TWSTA|0<<TWSTO|1<<TWINT|i2c_i_am_slave<<TWEA|1<<TWEN|1<<TWIE;  // Go!
                 ;
                 ;				}
                 ;
                 ;			if( (i2c_Do & i2c_type_msk) == i2c_sawsarp)
                 _0x176:
000b0d 940e 13b6 	CALL SUBOPT_0x1A
000b0f f421      	BRNE _0x177
                 ;				{
                 ;				TWDR = i2c_PageAddress[i2c_PageAddrIndex];					//     (    )
000b10 940e 13cc 	CALL SUBOPT_0x1C
                 ;				i2c_PageAddrIndex++;										//    
                 ;				TWCR = 0<<TWSTA|0<<TWSTO|1<<TWINT|i2c_i_am_slave<<TWEA|1<<TWEN|1<<TWIE;	// Go!
000b12 93e0 0074 	STS  116,R30
                 ;				}
                 ;			}
                 _0x177:
                 ;			break;
000b14 c0e8      	RJMP _0x16D
                 ;
                 ;	case 0x20:	//   SLA+W  NACK -   ,    .
                 _0x175:
000b15 32e0      	CPI  R30,LOW(0x20)
000b16 f431      	BRNE _0x178
                 ;			{
                 ;			i2c_Do |= i2c_ERR_NA;															//  
000b17 91e0 0e67 	LDS  R30,_i2c_Do
000b19 61e0      	ORI  R30,0x10
000b1a 940e 13a3 	CALL SUBOPT_0x18
                 ;			TWCR = 0<<TWSTA|1<<TWSTO|1<<TWINT|i2c_i_am_slave<<TWEA|1<<TWEN|1<<TWIE;			//   Stop
                 ;
                 ;			MACRO_i2c_WhatDo_ErrorOut 														//   ;
                 ;			break;
000b1c c0e0      	RJMP _0x16D
                 ;			}
                 ;
                 ;	case 0x28: 	//   ,  ACK!  ( sawp -    .  sawsarp -   )
                 _0x178:
000b1d 32e8      	CPI  R30,LOW(0x28)
000b1e f501      	BRNE _0x179
                 ;			{	//  :
                 ;			if( (i2c_Do & i2c_type_msk) == i2c_sawp)							//    
000b1f 91e0 0e67 	LDS  R30,_i2c_Do
000b21 70ec      	ANDI R30,LOW(0xC)
000b22 30e4      	CPI  R30,LOW(0x4)
000b23 f459      	BRNE _0x17A
                 ;				{
                 ;				if (i2c_index == i2c_ByteCount)												//     
000b24 91e0 0e6f 	LDS  R30,_i2c_ByteCount
000b26 91a0 0e6e 	LDS  R26,_i2c_index
000b28 17ea      	CP   R30,R26
000b29 f419      	BRNE _0x17B
                 ;					{
                 ;					TWCR = 0<<TWSTA|1<<TWSTO|1<<TWINT|i2c_i_am_slave<<TWEA|1<<TWEN|1<<TWIE;	//  Stop
000b2a 940e 13db 	CALL SUBOPT_0x1D
                 ;
                 ;					MACRO_i2c_WhatDo_MasterOut												//     
                 ;
                 ;					}
                 ;				else
000b2c c002      	RJMP _0x17C
                 _0x17B:
                 ;					{
                 ;					TWDR = i2c_Buffer[i2c_index];												//     
000b2d 940e 13bb 	CALL SUBOPT_0x1B
                 ;					i2c_index++;
                 ;					TWCR = 0<<TWSTA|0<<TWSTO|1<<TWINT|i2c_i_am_slave<<TWEA|1<<TWEN|1<<TWIE;  	// Go!
                 ;					}
                 _0x17C:
                 ;				}
                 ;
                 ;			if( (i2c_Do & i2c_type_msk) == i2c_sawsarp)						//    
                 _0x17A:
000b2f 940e 13b6 	CALL SUBOPT_0x1A
000b31 f461      	BRNE _0x17D
                 ;				{
                 ;				if(i2c_PageAddrIndex == i2c_PageAddrCount)					//     
000b32 91e0 0e74 	LDS  R30,_i2c_PageAddrCount
000b34 91a0 0e73 	LDS  R26,_i2c_PageAddrIndex
000b36 17ea      	CP   R30,R26
000b37 f411      	BRNE _0x17E
                 ;					{
                 ;					TWCR = 1<<TWSTA|0<<TWSTO|1<<TWINT|i2c_i_am_slave<<TWEA|1<<TWEN|1<<TWIE;		//   !
000b38 eee5      	LDI  R30,LOW(229)
000b39 c002      	RJMP _0x235
                 ;					}
                 ;				else
                 _0x17E:
                 ;					{														// 
                 ;					TWDR = i2c_PageAddress[i2c_PageAddrIndex];				//     
000b3a 940e 13cc 	CALL SUBOPT_0x1C
                 ;					i2c_PageAddrIndex++;									//     
                 ;					TWCR = 0<<TWSTA|0<<TWSTO|1<<TWINT|i2c_i_am_slave<<TWEA|1<<TWEN|1<<TWIE;		// Go!
                 _0x235:
000b3c 93e0 0074 	STS  116,R30
                 ;					}
                 ;				}
                 ;			}
                 _0x17D:
                 ;			break;
000b3e c0be      	RJMP _0x16D
                 ;
                 ;	case 0x30:	// ,   NACK  . 1      . 2  .
                 _0x179:
000b3f 33e0      	CPI  R30,LOW(0x30)
000b40 f441      	BRNE _0x180
                 ;			{
                 ;			i2c_Do |= i2c_ERR_NK;				//   .    ,  .
000b41 91e0 0e67 	LDS  R30,_i2c_Do
000b43 60e2      	ORI  R30,2
000b44 93e0 0e67 	STS  _i2c_Do,R30
                 ;
                 ;			TWCR = 0<<TWSTA|1<<TWSTO|1<<TWINT|i2c_i_am_slave<<TWEA|1<<TWEN|1<<TWIE;		//  Stop
000b46 940e 13db 	CALL SUBOPT_0x1D
                 ;
                 ;			MACRO_i2c_WhatDo_MasterOut													//   
                 ;
                 ;			break;
000b48 c0b4      	RJMP _0x16D
                 ;			}
                 ;
                 ;	case 0x38:	//    .    
                 _0x180:
000b49 33e8      	CPI  R30,LOW(0x38)
000b4a f449      	BRNE _0x181
                 ;			{
                 ;			i2c_Do |= i2c_ERR_LP;			//    
000b4b 91e0 0e67 	LDS  R30,_i2c_Do
000b4d 62e0      	ORI  R30,0x20
000b4e 940e 13e4 	CALL SUBOPT_0x1E
                 ;
                 ;			//   .
                 ;			i2c_index = 0;
                 ;			i2c_PageAddrIndex = 0;
                 ;
                 ;			TWCR = 1<<TWSTA|0<<TWSTO|1<<TWINT|i2c_i_am_slave<<TWEA|1<<TWEN|1<<TWIE;		//     
000b50 eee5      	LDI  R30,LOW(229)
000b51 93e0 0074 	STS  116,R30
                 ;			break;																		//   .
000b53 c0a9      	RJMP _0x16D
                 ;			}
                 ;
                 ;	case 0x40: //  SLA+R  .     
                 _0x181:
000b54 34e0      	CPI  R30,LOW(0x40)
000b55 f449      	BRNE _0x182
                 ;			{
                 ;			if(i2c_index+1 == i2c_ByteCount)								//      , 
000b56 940e 13ec 	CALL SUBOPT_0x1F
000b58 f411      	BRNE _0x183
                 ;				{
                 ;				TWCR = 0<<TWSTA|0<<TWSTO|1<<TWINT|0<<TWEA|1<<TWEN|1<<TWIE;	//  ,      NACK(Disconnect)
000b59 e8e5      	LDI  R30,LOW(133)
000b5a c001      	RJMP _0x236
                 ;				}															//    ,    .    
                 ;			else
                 _0x183:
                 ;				{
                 ;				TWCR = 0<<TWSTA|0<<TWSTO|1<<TWINT|1<<TWEA|1<<TWEN|1<<TWIE;	//        ACK
000b5b ece5      	LDI  R30,LOW(197)
                 _0x236:
000b5c 93e0 0074 	STS  116,R30
                 ;				}
                 ;
                 ;			break;
000b5e c09e      	RJMP _0x16D
                 ;			}
                 ;
                 ;	case 0x48: //  SLA+R,   NACK.  slave     .
                 _0x182:
000b5f 34e8      	CPI  R30,LOW(0x48)
000b60 f431      	BRNE _0x185
                 ;			{
                 ;			i2c_Do |= i2c_ERR_NA;															//   No Answer
000b61 91e0 0e67 	LDS  R30,_i2c_Do
000b63 61e0      	ORI  R30,0x10
000b64 940e 13a3 	CALL SUBOPT_0x18
                 ;			TWCR = 0<<TWSTA|1<<TWSTO|1<<TWINT|i2c_i_am_slave<<TWEA|1<<TWEN|1<<TWIE;			//  Stop
                 ;
                 ;			MACRO_i2c_WhatDo_ErrorOut														//    
                 ;			break;
000b66 c096      	RJMP _0x16D
                 ;			}
                 ;
                 ;	case 0x50: //  .
                 _0x185:
000b67 35e0      	CPI  R30,LOW(0x50)
000b68 f481      	BRNE _0x186
                 ;			{
                 ;			i2c_Buffer[i2c_index] = TWDR;			//    
000b69 940e 13f3 	CALL SUBOPT_0x20
                 ;			i2c_index++;
000b6b 91e0 0e6e 	LDS  R30,_i2c_index
000b6d 5fef      	SUBI R30,-LOW(1)
000b6e 93e0 0e6e 	STS  _i2c_index,R30
                 ;
                 ;			// To Do:    .       
                 ;
                 ;			if (i2c_index+1 == i2c_ByteCount)		//       ,    
000b70 940e 13ec 	CALL SUBOPT_0x1F
000b72 f411      	BRNE _0x187
                 ;				{
                 ;				TWCR = 0<<TWSTA|0<<TWSTO|1<<TWINT|0<<TWEA|1<<TWEN|1<<TWIE;		//      NACK (Disconnect)
000b73 e8e5      	LDI  R30,LOW(133)
000b74 c001      	RJMP _0x237
                 ;				}
                 ;			else
                 _0x187:
                 ;				{
                 ;				TWCR = 0<<TWSTA|0<<TWSTO|1<<TWINT|1<<TWEA|1<<TWEN|1<<TWIE;		//  ,    ,     
000b75 ece5      	LDI  R30,LOW(197)
                 _0x237:
000b76 93e0 0074 	STS  116,R30
                 ;				}
                 ;			break;
000b78 c084      	RJMP _0x16D
                 ;			}
                 ;
                 ;	case 0x58:	//     ,  NACK    .
                 _0x186:
000b79 35e8      	CPI  R30,LOW(0x58)
000b7a f429      	BRNE _0x189
                 ;			{
                 ;			i2c_Buffer[i2c_index] = TWDR;													//    
000b7b 940e 13f3 	CALL SUBOPT_0x20
                 ;			TWCR = 0<<TWSTA|1<<TWSTO|1<<TWINT|i2c_i_am_slave<<TWEA|1<<TWEN|1<<TWIE;			//  Stop
000b7d 940e 13db 	CALL SUBOPT_0x1D
                 ;
                 ;			MACRO_i2c_WhatDo_MasterOut														//   
                 ;
                 ;			break;
000b7f c07d      	RJMP _0x16D
                 ;			}
                 ;
                 ;// IIC  Slave ============================================================================
                 ;
                 ;	case 0x68:	// RCV SLA+W Low Priority							//       
                 _0x189:
000b80 36e8      	CPI  R30,LOW(0x68)
000b81 f011      	BREQ _0x18B
                 ;	case 0x78:	// RCV SLA+W Low Priority (Broadcast)				//     .  
000b82 37e8      	CPI  R30,LOW(0x78)
000b83 f431      	BRNE _0x18C
                 _0x18B:
                 ;			{
                 ;			i2c_Do |= i2c_ERR_LP | i2c_Interrupted;					//    Low Priority,    ,   
000b84 91e0 0e67 	LDS  R30,_i2c_Do
000b86 6ae0      	ORI  R30,LOW(0xA0)
000b87 940e 13e4 	CALL SUBOPT_0x1E
                 ;
                 ;			// Restore Trans after.
                 ;			i2c_index = 0;											//    
                 ;			i2c_PageAddrIndex = 0;
                 ;			}														//   . !!! break  ,     "case 60"
                 ;
                 ;	case 0x60: // RCV SLA+W  Incoming?								//     
000b89 c002      	RJMP _0x18D
                 _0x18C:
000b8a 36e0      	CPI  R30,LOW(0x60)
000b8b f409      	BRNE _0x18E
                 _0x18D:
                 ;	case 0x70: // RCV SLA+W  Incoming? (Broascast)					//   
000b8c c002      	RJMP _0x18F
                 _0x18E:
000b8d 37e0      	CPI  R30,LOW(0x70)
000b8e f449      	BRNE _0x190
                 _0x18F:
                 ;			{
                 ;
                 ;			i2c_Do |= i2c_Busy;										//  .    
000b8f 940e 13fc 	CALL SUBOPT_0x21
                 ;			i2c_SlaveIndex = 0;										//     ,   .  
000b91 e0e0      	LDI  R30,LOW(0)
000b92 93e0 0e6a 	STS  _i2c_SlaveIndex,R30
                 ;
                 ;			if (i2c_MasterBytesRX == 1)								//       ,     
                 ;				{
                 ;				TWCR = 0<<TWSTA|0<<TWSTO|1<<TWINT|0<<TWEA|1<<TWEN|1<<TWIE;			//      ... NACK!
000b94 e8e5      	LDI  R30,LOW(133)
                 ;				}
                 ;			else
                 ;				{
                 ;				TWCR = 0<<TWSTA|0<<TWSTO|1<<TWINT|1<<TWEA|1<<TWEN|1<<TWIE;			//       ,      ACK!
                 _0x238:
000b95 93e0 0074 	STS  116,R30
                 ;				}
                 ;			break;
000b97 c065      	RJMP _0x16D
                 ;			}
                 ;
                 ;	case 0x80:	// RCV Data Byte									//      .   .  
                 _0x190:
000b98 38e0      	CPI  R30,LOW(0x80)
000b99 f011      	BREQ _0x194
                 ;	case 0x90:	// RCV Data Byte (Broadcast)
000b9a 39e0      	CPI  R30,LOW(0x90)
000b9b f461      	BRNE _0x195
                 _0x194:
                 ;			{
                 ;			i2c_InBuff[i2c_SlaveIndex] = TWDR;						//    .
000b9c 940e 1402 	CALL SUBOPT_0x22
                 ;
                 ;			i2c_SlaveIndex++;										//  
000b9e 940e 140b 	CALL SUBOPT_0x23
                 ;
                 ;			if (i2c_SlaveIndex == i2c_MasterBytesRX-1) 				//      ?
000ba0 30e0      	CPI  R30,0
000ba1 f411      	BRNE _0x196
                 ;				{
                 ;				TWCR = 0<<TWSTA|0<<TWSTO|1<<TWINT|0<<TWEA|1<<TWEN|1<<TWIE;			//     NACK!
000ba2 e8e5      	LDI  R30,LOW(133)
000ba3 c001      	RJMP _0x239
                 ;				}
                 ;			else
                 _0x196:
                 ;				{
                 ;				TWCR = 0<<TWSTA|0<<TWSTO|1<<TWINT|1<<TWEA|1<<TWEN|1<<TWIE;			//   ?   ACK!
000ba4 ece5      	LDI  R30,LOW(197)
                 _0x239:
000ba5 93e0 0074 	STS  116,R30
                 ;				}
                 ;			break;
000ba7 c055      	RJMP _0x16D
                 ;			}
                 ;
                 ;	case 0x88: // RCV Last Byte										//   
                 _0x195:
000ba8 38e8      	CPI  R30,LOW(0x88)
000ba9 f011      	BREQ _0x199
                 ;	case 0x98: // RCV Last Byte (Broadcast)
000baa 39e8      	CPI  R30,LOW(0x98)
000bab f489      	BRNE _0x19A
                 _0x199:
                 ;			{
                 ;			i2c_InBuff[i2c_SlaveIndex] = TWDR;						//    
000bac 940e 1402 	CALL SUBOPT_0x22
                 ;
                 ;			if (i2c_Do & i2c_Interrupted)							//         
000bae 91e0 0e67 	LDS  R30,_i2c_Do
000bb0 78e0      	ANDI R30,LOW(0x80)
000bb1 f011      	BREQ _0x19B
                 ;				{
                 ;				TWCR = 1<<TWSTA|0<<TWSTO|1<<TWINT|1<<TWEA|1<<TWEN|1<<TWIE;			//     Start      
000bb2 eee5      	LDI  R30,LOW(229)
000bb3 c001      	RJMP _0x23A
                 ;				}
                 ;			else
                 _0x19B:
                 ;				{
                 ;				TWCR = 0<<TWSTA|0<<TWSTO|1<<TWINT|1<<TWEA|1<<TWEN|1<<TWIE;			//     ,      
000bb4 ece5      	LDI  R30,LOW(197)
                 _0x23A:
000bb5 93e0 0074 	STS  116,R30
                 ;				}
                 ;
                 ;			MACRO_i2c_WhatDo_SlaveOut												//        
                +
000bb7 91e0 0e63+LDS R30 , _SlaveOutFunc + ( 0 )
000bb9 91f0 0e64+LDS R31 , _SlaveOutFunc + ( 0 ) + 1
000bbb 9509     +ICALL
                 	__CALL1MN _SlaveOutFunc,0
                 ;			break;
000bbc c040      	RJMP _0x16D
                 ;			}
                 ;
                 ;
                 ;	case 0xA0: // ,    .      ?
                 _0x19A:
000bbd 3ae0      	CPI  R30,LOW(0xA0)
000bbe f421      	BRNE _0x19D
                 ;			{
                 ;			// , ,   ,       ,  .
                 ;			//     .      .
                 ;
                 ;			TWCR = 0<<TWSTA|0<<TWSTO|1<<TWINT|1<<TWEA|1<<TWEN|1<<TWIE;			//  ,   
000bbf ece5      	LDI  R30,LOW(197)
000bc0 93e0 0074 	STS  116,R30
                 ;			break;
000bc2 c03a      	RJMP _0x16D
                 ;			}
                 ;
                 ;
                 ;
                 ;	case 0xB0:  //         
                 _0x19D:
000bc3 3be0      	CPI  R30,LOW(0xB0)
000bc4 f431      	BRNE _0x19E
                 ;			{
                 ;			i2c_Do |= i2c_ERR_LP | i2c_Interrupted;			//  ,      .
000bc5 91e0 0e67 	LDS  R30,_i2c_Do
000bc7 6ae0      	ORI  R30,LOW(0xA0)
000bc8 940e 13e4 	CALL SUBOPT_0x1E
                 ;
                 ;			//  
                 ;			i2c_index = 0;
                 ;			i2c_PageAddrIndex = 0;
                 ;			}												// Break !  
                 ;
                 ;	case 0xA8:	// //       
000bca c002      	RJMP _0x19F
                 _0x19E:
000bcb 3ae8      	CPI  R30,LOW(0xA8)
000bcc f449      	BRNE _0x1A0
                 _0x19F:
                 ;			{
                 ;			i2c_SlaveIndex = 0;								//     0
000bcd e0e0      	LDI  R30,LOW(0)
000bce 93e0 0e6a 	STS  _i2c_SlaveIndex,R30
                 ;
                 ;			TWDR = i2c_OutBuff[i2c_SlaveIndex];				// ,      .
000bd0 940e 1411 	CALL SUBOPT_0x24
                 ;
                 ;			if(i2c_MasterBytesTX == 1)
                 ;				{
                 ;				TWCR = 0<<TWSTA|0<<TWSTO|1<<TWINT|0<<TWEA|1<<TWEN|1<<TWIE;	//   ,    NACK   
000bd2 e8e5      	LDI  R30,LOW(133)
                 ;				}
                 ;			else
                 ;				{
                 ;				TWCR = 0<<TWSTA|0<<TWSTO|1<<TWINT|1<<TWEA|1<<TWEN|1<<TWIE;	//   ,   ACK 
                 _0x23B:
000bd3 93e0 0074 	STS  116,R30
                 ;				}
                 ;
                 ;			break;
000bd5 c027      	RJMP _0x16D
                 ;			}
                 ;
                 ;
                 ;	case 0xB8: //  ,  ACK
                 _0x1A0:
000bd6 3be8      	CPI  R30,LOW(0xB8)
000bd7 f471      	BRNE _0x1A3
                 ;			{
                 ;
                 ;			i2c_SlaveIndex++;								//   .   
000bd8 940e 140b 	CALL SUBOPT_0x23
                 ;			TWDR = i2c_OutBuff[i2c_SlaveIndex];				//   
000bda 940e 1411 	CALL SUBOPT_0x24
                 ;
                 ;			if (i2c_SlaveIndex == i2c_MasterBytesTX-1)		//    , 
000bdc 91e0 0e6a 	LDS  R30,_i2c_SlaveIndex
000bde 30e0      	CPI  R30,0
000bdf f411      	BRNE _0x1A4
                 ;				{
                 ;				TWCR = 0<<TWSTA|0<<TWSTO|1<<TWINT|0<<TWEA|1<<TWEN|1<<TWIE;	//     NACK
000be0 e8e5      	LDI  R30,LOW(133)
000be1 c001      	RJMP _0x23C
                 ;				}
                 ;			else
                 _0x1A4:
                 ;				{
                 ;				TWCR = 0<<TWSTA|0<<TWSTO|1<<TWINT|1<<TWEA|0<<TWEN|1<<TWIE;	//  ,     ACK
000be2 ece1      	LDI  R30,LOW(193)
                 _0x23C:
000be3 93e0 0074 	STS  116,R30
                 ;				}
                 ;
                 ;			break;
000be5 c017      	RJMP _0x16D
                 ;			}
                 ;
                 ;	case 0xC0: //    ,    ,  NACK
                 _0x1A3:
000be6 3ce0      	CPI  R30,LOW(0xC0)
000be7 f011      	BREQ _0x1A7
                 ;	case 0xC8: //  ACK.     . ..     .
000be8 3ce8      	CPI  R30,LOW(0xC8)
000be9 f499      	BRNE _0x1AB
                 _0x1A7:
                 ;			{
                 ;			if (i2c_Do & i2c_Interrupted)											//      
000bea 91e0 0e67 	LDS  R30,_i2c_Do
000bec 78e0      	ANDI R30,LOW(0x80)
000bed f039      	BREQ _0x1A9
                 ;				{																	//     
                 ;				i2c_Do &= i2c_NoInterrupted;										//   
000bee 91e0 0e67 	LDS  R30,_i2c_Do
000bf0 77ef      	ANDI R30,0x7F
000bf1 93e0 0e67 	STS  _i2c_Do,R30
                 ;				TWCR = 1<<TWSTA|0<<TWSTO|1<<TWINT|1<<TWEA|1<<TWEN|1<<TWIE;			//       .
000bf3 eee5      	LDI  R30,LOW(229)
000bf4 c001      	RJMP _0x23D
                 ;				}
                 ;			else
                 _0x1A9:
                 ;				{
                 ;				TWCR = 0<<TWSTA|0<<TWSTO|1<<TWINT|1<<TWEA|1<<TWEN|1<<TWIE;			//    ,    
000bf5 ece5      	LDI  R30,LOW(197)
                 _0x23D:
000bf6 93e0 0074 	STS  116,R30
                 ;				}
                 ;
                 ;			MACRO_i2c_WhatDo_SlaveOut												//    . ,  
                +
000bf8 91e0 0e63+LDS R30 , _SlaveOutFunc + ( 0 )
000bfa 91f0 0e64+LDS R31 , _SlaveOutFunc + ( 0 ) + 1
000bfc 9509     +ICALL
                 	__CALL1MN _SlaveOutFunc,0
                 ;																					//    .    ,  
                 ;			break;																	//    .
                 ;			}
                 ;
                 ;	default:	break;
                 _0x1AB:
                 ;	}
                 _0x16D:
                 ;}
                 _0x245:
000bfd 91e9      	LD   R30,Y+
000bfe bfef      	OUT  SREG,R30
000bff 91f9      	LD   R31,Y+
000c00 91e9      	LD   R30,Y+
000c01 91b9      	LD   R27,Y+
000c02 91a9      	LD   R26,Y+
000c03 9199      	LD   R25,Y+
000c04 9189      	LD   R24,Y+
000c05 9179      	LD   R23,Y+
000c06 9169      	LD   R22,Y+
000c07 90f9      	LD   R15,Y+
000c08 9019      	LD   R1,Y+
000c09 9009      	LD   R0,Y+
000c0a 9518      	RETI
                 ;
                 ;void DoNothing(void)																//  ,   
                 ;{
                 _DoNothing:
                 ;}
000c0b 9508      	RET
                 ;
                 ;void Init_i2c(void)							//   
                 ;{
                 _Init_i2c:
                 ;i2c_PORT |= 1<<i2c_SCL|1<<i2c_SDA;			//    ,     
000c0c b3e2      	IN   R30,0x12
000c0d 60e3      	ORI  R30,LOW(0x3)
000c0e bbe2      	OUT  0x12,R30
                 ;i2c_DDR &=~(1<<i2c_SCL|1<<i2c_SDA);
000c0f b3e1      	IN   R30,0x11
000c10 7fec      	ANDI R30,LOW(0xFC)
000c11 bbe1      	OUT  0x11,R30
                 ;
                 ;TWBR = 0xFF;         						//  
000c12 efef      	LDI  R30,LOW(255)
000c13 93e0 0070 	STS  112,R30
                 ;TWSR = 0x03;
000c15 e0e3      	LDI  R30,LOW(3)
000c16 93e0 0071 	STS  113,R30
                 ;/*
                 ;// Bit Rate: 400,000 kHz
                 ;TWBR=0x02;
                 ;// Two Wire Bus Slave Address: 0x0
                 ;// General Call Recognition: Off
                 ;TWAR=0x00;
                 ;// Generate Acknowledge Pulse: Off
                 ;// TWI Interrupt: On
                 ;TWCR = (1<<TWIE)|(1<<TWEN) ;
                 ;TWSR=0x00;*/
                 ;}
000c18 9508      	RET
                 ;
                 ;void Init_Slave_i2c(IIC_F Addr)				//    ( )
                 ;{
                 _Init_Slave_i2c:
                 ;TWAR = i2c_MasterAddress;					//     ,    .
                 ;	*Addr -> Y+0
000c19 e3e2      	LDI  R30,LOW(50)
000c1a 93e0 0072 	STS  114,R30
                 ;											// 1    ,      
                 ;SlaveOutFunc = Addr;						//       
000c1c 81e8      	LD   R30,Y
000c1d 81f9      	LDD  R31,Y+1
000c1e 93e0 0e63 	STS  _SlaveOutFunc,R30
000c20 93f0 0e64 	STS  _SlaveOutFunc+1,R31
                 ;
                 ;TWCR = 0<<TWSTA|0<<TWSTO|0<<TWINT|1<<TWEA|1<<TWEN|1<<TWIE;		//      .
000c22 e4e5      	LDI  R30,LOW(69)
000c23 93e0 0074 	STS  116,R30
                 ;}
000c25 9622      	ADIW R28,2
000c26 9508      	RET
                 ;#include "D_i2c_AT24C_EEP/i2c_AT24C_EEP.h"
                 ;
                 ;
                 ;#define HI(X) (X>>8)
                 ;#define LO(X) (X & 0xFF)
                 ;
                 ;uint8_t i2c_eep_WriteByte(uint8_t SAddr,uint16_t Addr, uint8_t Byte, IIC_F WhatDo)
                 ;{
                 _i2c_eep_WriteByte:
                 ;
                 ;if (i2c_Do & i2c_Busy) return 0;
                 ;	SAddr -> Y+5
                 ;	Addr -> Y+3
                 ;	Byte -> Y+2
                 ;	*WhatDo -> Y+0
000c27 91e0 0e67 	LDS  R30,_i2c_Do
000c29 74e0      	ANDI R30,LOW(0x40)
000c2a f011      	BREQ _0x1AC
000c2b e0e0      	LDI  R30,LOW(0)
000c2c c01e      	RJMP _0x20C0007
                 ;
                 ;i2c_index = 0;
                 _0x1AC:
000c2d e0e0      	LDI  R30,LOW(0)
000c2e 93e0 0e6e 	STS  _i2c_index,R30
                 ;i2c_ByteCount = 3;
000c30 e0e3      	LDI  R30,LOW(3)
000c31 93e0 0e6f 	STS  _i2c_ByteCount,R30
                 ;
                 ;i2c_SlaveAddress = SAddr;
000c33 81ed      	LDD  R30,Y+5
000c34 93e0 0e70 	STS  _i2c_SlaveAddress,R30
                 ;
                 ;
                 ;i2c_Buffer[0] = HI(Addr);
000c36 81ec      	LDD  R30,Y+4
000c37 93e0 0e6b 	STS  _i2c_Buffer,R30
                 ;i2c_Buffer[1] = LO(Addr);
000c39 81eb      	LDD  R30,Y+3
                +
000c3a 93e0 0e6c+STS _i2c_Buffer + ( 1 ) , R30
                 	__PUTB1MN _i2c_Buffer,1
                 ;i2c_Buffer[2] = Byte;
000c3c 81ea      	LDD  R30,Y+2
                +
000c3d 93e0 0e6d+STS _i2c_Buffer + ( 2 ) , R30
                 	__PUTB1MN _i2c_Buffer,2
                 ;
                 ;i2c_Do = i2c_sawp;
000c3f e0e4      	LDI  R30,LOW(4)
000c40 93e0 0e67 	STS  _i2c_Do,R30
                 ;
                 ;MasterOutFunc = WhatDo;
000c42 81e8      	LD   R30,Y
000c43 81f9      	LDD  R31,Y+1
000c44 93e0 0e61 	STS  _MasterOutFunc,R30
000c46 93f0 0e62 	STS  _MasterOutFunc+1,R31
                 ;ErrorOutFunc = WhatDo;
000c48 940e 1418 	CALL SUBOPT_0x25
                 ;
                 ;TWCR = 1<<TWSTA|0<<TWSTO|1<<TWINT|0<<TWEA|1<<TWEN|1<<TWIE;
                 ;
                 ;i2c_Do |= i2c_Busy;
                 ;
                 ;return 1;
000c4a e0e1      	LDI  R30,LOW(1)
                 _0x20C0007:
000c4b 9626      	ADIW R28,6
000c4c 9508      	RET
                 ;}
                 ;
                 ;
                 ;uint8_t i2c_eep_ReadByte(uint8_t SAddr, uint16_t Addr, uint8_t ByteNumber, IIC_F WhatDo)
                 ;{
                 ;if (i2c_Do & i2c_Busy) return 0;
                 ;	SAddr -> Y+5
                 ;	Addr -> Y+3
                 ;	ByteNumber -> Y+2
                 ;	*WhatDo -> Y+0
                 ;
                 ;i2c_index = 0;
                 ;i2c_ByteCount = ByteNumber;
                 ;
                 ;i2c_SlaveAddress = SAddr;
                 ;
                 ;i2c_PageAddress[0] = HI(Addr);
                 ;i2c_PageAddress[1] = LO(Addr);
                 ;
                 ;i2c_PageAddrIndex = 0;
                 ;i2c_PageAddrCount = 2;
                 ;
                 ;i2c_Do = i2c_sawsarp;
                 ;
                 ;MasterOutFunc = WhatDo;
                 ;ErrorOutFunc = WhatDo;
                 ;
                 ;TWCR = 1<<TWSTA|0<<TWSTO|1<<TWINT|0<<TWEA|1<<TWEN|1<<TWIE;
                 ;
                 ;i2c_Do |= i2c_Busy;
                 ;
                 ;return 1;
                 ;}
                 ;#include <adapter.h>
                 ;
                 ;//initialize watchdog
                 ;void WDT_Init(void)
                 ;{
                 ;#asm("cli")//disable interrupts
                 ;#asm("wdr")//reset watchdog
                 ;//set up WDT interrupt
                 ;WDTCR = (1<<WDCE)|(1<<WDE);
                 ;//Start watchdog timer with 2s prescaller
                 ;WDTCR = (1<<WDP2)|(1<<WDP1)|(1<<WDP0);
                 ;#asm("sei")//Enable global interrupts
                 ;}
                 ;/*
                 ;//Watchdog timeout ISR
                 ;ISR(WDT_vect)
                 ;{
                 ;    //Burst of fice 0.1Hz pulses
                 ;    for (uint8_t i=0;i<4;i++)
                 ;    {
                 ;        //LED ON
                 ;        PORTD|=(1<<PD2);
                 ;        //~0.1s delay
                 ;        _delay_ms(20);
                 ;        //LED OFF
                 ;        PORTD&=~(1<<PD2);
                 ;        _delay_ms(80);
                 ;    }
                 ; */
                 ;#include <adapter.h>
                 ;
                 ;#include "D_usart/usart.h"
                 ;//#include "D_usart/usart.c"
                 ;
                 ;#include "global_variables.h"
                 ;
                 ;interrupt [ADC_INT] void adc_isr(void)// ADC interrupt service routine
                 ;{
                 _adc_isr:
000c4d 920a      	ST   -Y,R0
000c4e 921a      	ST   -Y,R1
000c4f 936a      	ST   -Y,R22
000c50 937a      	ST   -Y,R23
000c51 939a      	ST   -Y,R25
000c52 93aa      	ST   -Y,R26
000c53 93ba      	ST   -Y,R27
000c54 93ea      	ST   -Y,R30
000c55 93fa      	ST   -Y,R31
000c56 b7ef      	IN   R30,SREG
000c57 93ea      	ST   -Y,R30
                 ; adc_result=ADCW*3-ADCW/7; //       
000c58 b1e4      	IN   R30,0x4
000c59 b1f5      	IN   R31,0x4+1
000c5a e0a3      	LDI  R26,LOW(3)
000c5b e0b0      	LDI  R27,HIGH(3)
000c5c 940e 15a3 	CALL __MULW12U
000c5e 01bf      	MOVW R22,R30
000c5f b1e4      	IN   R30,0x4
000c60 b1f5      	IN   R31,0x4+1
000c61 01df      	MOVW R26,R30
000c62 e0e7      	LDI  R30,LOW(7)
000c63 e0f0      	LDI  R31,HIGH(7)
000c64 940e 15d1 	CALL __DIVW21U
000c66 01db      	MOVW R26,R22
000c67 1bae      	SUB  R26,R30
000c68 0bbf      	SBC  R27,R31
000c69 93a0 0e4d 	STS  _adc_result,R26
000c6b 93b0 0e4e 	STS  _adc_result+1,R27
                 ;  ADCSRA=0;  //
000c6d e0e0      	LDI  R30,LOW(0)
000c6e b9e6      	OUT  0x6,R30
                 ;}
000c6f 91e9      	LD   R30,Y+
000c70 bfef      	OUT  SREG,R30
000c71 91f9      	LD   R31,Y+
000c72 91e9      	LD   R30,Y+
000c73 91b9      	LD   R27,Y+
000c74 91a9      	LD   R26,Y+
000c75 9199      	LD   R25,Y+
000c76 9179      	LD   R23,Y+
000c77 9169      	LD   R22,Y+
000c78 9019      	LD   R1,Y+
000c79 9009      	LD   R0,Y+
000c7a 9518      	RETI
                 ;
                 ;
                 ;
                 ;
                 ;
                 ;
                 ;/*   //   !
                 ;// Timer2 output compare interrupt service routine
                 ;interrupt [TIM2_COMP] void timer2_comp_isr(void)
                 ;{
                 ;SYS_TICK++;
                 ;   //  if (USART_Get_rxCount(USART_0) > 0) //    - 
                 ;   //    {
                 ;   //     symbol = USART_GetChar(USART_0);
                 ;   //     --Parser_req_state_cnt; //     
                 ;
                 ;            #warning not_optimized
                 ;   //      if(Parser_req_state_cnt % 5 != 0) //   ..
                 ;   //      {
                 ;   //        _set(fl.Parser_Req);  //-     ,..
                 ;   //      }
                 ;   //      else //.. 1   5     ..
                 ;   //      {
                 ;   //         PARS_Parser(symbol);//..    
                 ;   //      }
                 ;   //    }
                 ;}
                 ;     */
                 ;#include <adapter.h>
                 ;
                 ;#include "RTOS/EERTOS.h"
                 ;#include "RTOS/EERTOSHAL.h"
                 ; #include "D_Tasks/task_list.h"
                 ;/*
                 ;  .()
                 ;     
                 ;,      
                 ; .     
                 ;*/
                 ;
                 ;
                 ;
                 ;/*
                 ;void red_blink(void){
                 ;char t=4;
                 ;    do{
                 ;    LED_RED_ON;
                 ;    delay_ms(100);
                 ;    LED_RED_OFF;
                 ;    delay_ms(200);
                 ;    }while(--t);
                 ;}  */
                 ;
                 ;
                 ;uint8_t check_after_pow_on(void)     /*need optimisation*/
                 ;{
                 ;//uint8_t state = 0;
                 ;
                 ;/*#1 check periferie*/
                 ;//if (PINA!=0){printf("P_A=%d\r",PINA);}
                 ;//if (PINB!=0){printf("P_B=%d\r",PINB);}
                 ;//if (PINC!=0){printf("P_C=%d\r",PINC);}
                 ;//if (PIND!=0){printf("P_D=%d\r\n",PIND);}
                 ;
                 ;
                 ;/*#2 check reset source*/
                 ;/*The MCU Control and Status Register provides
                 ;information on which reset source caused an MCU Reset*/
                 ;if (MCUCSR & (1<<PORF))// Power-on Reset
                 ;   {
                 ;    printf("porf\r\n");
                 ;   }
                 ;else if (MCUCSR & (1<<EXTRF))// External Reset
                 ;   {
                 ;    printf("extrf\r\n");
                 ;   }
                 ;else if (MCUCSR & (1<<BORF))// Brown-Out Reset
                 ;   {
                 ;    printf("borf\r\n");
                 ;   }
                 ;else if (MCUCSR & (1<<WDRF))// Watchdog Reset
                 ;   {
                 ;    printf("wdrf\r\n");
                 ;   }
                 ;else if (MCUCSR & (1<<JTRF))// JTAG Reset
                 ;   {
                 ;    printf("JTRF\r\n");
                 ;   }
                 ;
                 ;MCUCSR&=~((1<<JTRF) | (1<<WDRF) | (1<<BORF) | (1<<EXTRF) | (1<<PORF));//clear register
                 ;return 0;
                 ;}
                 ;
                 ;
                 ;void TIM2_ON(void){
                 ;//TCCR2 |= (1<<CS21)|(1<<CS20);
                 ;TCCR2 |= (1<<CS22)|(1<<CS21)|(1<<CS20);
                 ;
                 ;}
                 ;
                 ;void TIM2_OFF(void){
                 ;//TCCR2 &= ~((1<<CS21)|(1<<CS20));
                 ;TCCR2 &= ~((1<<CS22)|(1<<CS21)|(1<<CS20));
                 ;}
                 ;
                 ;void Sys_timer_init(void){ //USED BY RTOS (DONT TOUCH!)
                 ;//Settings for Timer2
                 ;OCR2 = 125; //125000 /125 = 1000 compare interruptes per second
                 ;TCCR2 |= (1<<CS21)|(1<<CS20);//START timer (8Mhz div 64 = 125000)   //Upd-5  16
                 ;TIMSK |= (1<<OCIE2); //compare interrupt EN
                 ;}
                 ;
                 ;
                 ;void print_help(void){
                 _print_help:
                 ;StopRTOS();
000c7b 940e 1263 	CALL _StopRTOS
                 ;USART_SendStrFl(SYSTEM_USART, help_mess_0);
000c7d e0e0      	LDI  R30,LOW(0)
000c7e 93ea      	ST   -Y,R30
000c7f efe0      	LDI  R30,LOW(_help_mess_0*2)
000c80 e0f0      	LDI  R31,HIGH(_help_mess_0*2)
000c81 940e 1420 	CALL SUBOPT_0x26
                 ;USART_SendStrFl(SYSTEM_USART, help_mess_1);
000c83 e0ea      	LDI  R30,LOW(_help_mess_1*2)
000c84 e0f1      	LDI  R31,HIGH(_help_mess_1*2)
000c85 940e 1420 	CALL SUBOPT_0x26
                 ;USART_SendStrFl(SYSTEM_USART, help_mess_2);
000c87 e5ea      	LDI  R30,LOW(_help_mess_2*2)
000c88 e0f1      	LDI  R31,HIGH(_help_mess_2*2)
000c89 940e 1420 	CALL SUBOPT_0x26
                 ;USART_SendStrFl(SYSTEM_USART, help_mess_3);
000c8b e8e2      	LDI  R30,LOW(_help_mess_3*2)
000c8c e0f1      	LDI  R31,HIGH(_help_mess_3*2)
000c8d 940e 1420 	CALL SUBOPT_0x26
                 ;USART_SendStrFl(SYSTEM_USART, help_mess_4);
000c8f e9e2      	LDI  R30,LOW(_help_mess_4*2)
000c90 e0f1      	LDI  R31,HIGH(_help_mess_4*2)
000c91 940e 1420 	CALL SUBOPT_0x26
                 ;
                 ;USART_SendStrFl(SYSTEM_USART,help_Uart_0);
000c93 ede0      	LDI  R30,LOW(_help_Uart_0*2)
000c94 e0f1      	LDI  R31,HIGH(_help_Uart_0*2)
000c95 940e 1420 	CALL SUBOPT_0x26
                 ;USART_SendStrFl(SYSTEM_USART,help_Uart_1);
000c97 e0e6      	LDI  R30,LOW(_help_Uart_1*2)
000c98 e0f2      	LDI  R31,HIGH(_help_Uart_1*2)
000c99 940e 1420 	CALL SUBOPT_0x26
                 ;USART_SendStrFl(SYSTEM_USART,help_Spi_0);
000c9b e2ec      	LDI  R30,LOW(_help_Spi_0*2)
000c9c e0f2      	LDI  R31,HIGH(_help_Spi_0*2)
000c9d 940e 1420 	CALL SUBOPT_0x26
                 ;USART_SendStrFl(SYSTEM_USART,help_Spi_1);
000c9f e5ea      	LDI  R30,LOW(_help_Spi_1*2)
000ca0 e0f2      	LDI  R31,HIGH(_help_Spi_1*2)
000ca1 93fa      	ST   -Y,R31
000ca2 93ea      	ST   -Y,R30
000ca3 940e 0737 	CALL _USART_SendStrFl
                 ;RunRTOS();
000ca5 940e 1259 	CALL _RunRTOS
                 ;}
000ca7 9508      	RET
                 ;
                 ;void print_settings_ram(void){
                 _print_settings_ram:
                 ;uint8_t i = 0;
                 ;char str[10];
                 ;
                 ;USART_SendStr(USART_0,"\r<RAM>");
000ca8 972a      	SBIW R28,10
000ca9 931a      	ST   -Y,R17
                 ;	i -> R17
                 ;	str -> Y+1
000caa e010      	LDI  R17,0
000cab e0e0      	LDI  R30,LOW(0)
000cac 93ea      	ST   -Y,R30
                +
000cad e0e0     +LDI R30 , LOW ( _0x1B7 + ( 0 ) )
000cae e0f2     +LDI R31 , HIGH ( _0x1B7 + ( 0 ) )
                 	__POINTW1MN _0x1B7,0
000caf 940e 1427 	CALL SUBOPT_0x27
                 ;USART_SendStr(USART_0,"\rUART_SETTINGS\r");
000cb1 e0e0      	LDI  R30,LOW(0)
000cb2 93ea      	ST   -Y,R30
                +
000cb3 e0e7     +LDI R30 , LOW ( _0x1B7 + ( 7 ) )
000cb4 e0f2     +LDI R31 , HIGH ( _0x1B7 + ( 7 ) )
                 	__POINTW1MN _0x1B7,7
000cb5 940e 1427 	CALL SUBOPT_0x27
                 ;  for(i=0;i<COUNT_OF_UARTS;i++)
000cb7 e010      	LDI  R17,LOW(0)
                 _0x1B9:
000cb8 3012      	CPI  R17,2
000cb9 f538      	BRSH _0x1BA
                 ;    {
                 ;    USART_SendStr(USART_0,"UART ");
000cba e0e0      	LDI  R30,LOW(0)
000cbb 93ea      	ST   -Y,R30
                +
000cbc e1e7     +LDI R30 , LOW ( _0x1B7 + ( 23 ) )
000cbd e0f2     +LDI R31 , HIGH ( _0x1B7 + ( 23 ) )
                 	__POINTW1MN _0x1B7,23
000cbe 940e 1427 	CALL SUBOPT_0x27
                 ;    ltoa(i,str);
000cc0 940e 142b 	CALL SUBOPT_0x28
                 ;    USART_SendStr(USART_0,str); //convert dec to str
                 ;
                 ;    USART_SendStr(USART_0,"\r Mode ");
000cc2 e0e0      	LDI  R30,LOW(0)
000cc3 93ea      	ST   -Y,R30
                +
000cc4 e1ed     +LDI R30 , LOW ( _0x1B7 + ( 29 ) )
000cc5 e0f2     +LDI R31 , HIGH ( _0x1B7 + ( 29 ) )
                 	__POINTW1MN _0x1B7,29
000cc6 940e 1427 	CALL SUBOPT_0x27
                 ;    ltoa(RAM_settings.MODE_of_Uart[i],str);
                +
000cc8 e1a0     +LDI R26 , LOW ( _RAM_settings + ( 4 ) )
000cc9 e0b3     +LDI R27 , HIGH ( _RAM_settings + ( 4 ) )
                 	__POINTW2MN _RAM_settings,4
000cca 940e 143c 	CALL SUBOPT_0x29
                 ;    USART_SendStr(USART_0,str); //convert dec to str
                 ;
                 ;    USART_SendStr(USART_0,"\r Speed ");
000ccc e0e0      	LDI  R30,LOW(0)
000ccd 93ea      	ST   -Y,R30
                +
000cce e2e5     +LDI R30 , LOW ( _0x1B7 + ( 37 ) )
000ccf e0f2     +LDI R31 , HIGH ( _0x1B7 + ( 37 ) )
                 	__POINTW1MN _0x1B7,37
000cd0 940e 1427 	CALL SUBOPT_0x27
                 ;    ltoa(RAM_settings.baud_of_Uart[i],str);
000cd2 2fe1      	MOV  R30,R17
000cd3 940e 1450 	CALL SUBOPT_0x2A
000cd5 940e 160d 	CALL __GETW1P
000cd7 940e 1453 	CALL SUBOPT_0x2B
                 ;    USART_SendStr(USART_0,str); //convert dec to str
                 ;
                 ;    USART_SendStr(USART_0,"\r--------\r");
000cd9 e0e0      	LDI  R30,LOW(0)
000cda 93ea      	ST   -Y,R30
                +
000cdb e2ee     +LDI R30 , LOW ( _0x1B7 + ( 46 ) )
000cdc e0f2     +LDI R31 , HIGH ( _0x1B7 + ( 46 ) )
                 	__POINTW1MN _0x1B7,46
000cdd 940e 1427 	CALL SUBOPT_0x27
                 ;    }
000cdf 5f1f      	SUBI R17,-1
000ce0 cfd7      	RJMP _0x1B9
                 _0x1BA:
                 ;
                 ;USART_SendStr(USART_0,"\rSPI_SETTINGS\r");
000ce1 e0e0      	LDI  R30,LOW(0)
000ce2 93ea      	ST   -Y,R30
                +
000ce3 e3e9     +LDI R30 , LOW ( _0x1B7 + ( 57 ) )
000ce4 e0f2     +LDI R31 , HIGH ( _0x1B7 + ( 57 ) )
                 	__POINTW1MN _0x1B7,57
000ce5 940e 1427 	CALL SUBOPT_0x27
                 ;  for(i=0;i<COUNT_OF_SPI;i++)
000ce7 e010      	LDI  R17,LOW(0)
                 _0x1BC:
000ce8 3012      	CPI  R17,2
000ce9 f520      	BRSH _0x1BD
                 ;    {
                 ;    USART_SendStr(USART_0,"SPI ");
000cea e0e0      	LDI  R30,LOW(0)
000ceb 93ea      	ST   -Y,R30
                +
000cec e4e8     +LDI R30 , LOW ( _0x1B7 + ( 72 ) )
000ced e0f2     +LDI R31 , HIGH ( _0x1B7 + ( 72 ) )
                 	__POINTW1MN _0x1B7,72
000cee 940e 1427 	CALL SUBOPT_0x27
                 ;    ltoa(i,str);
000cf0 940e 142b 	CALL SUBOPT_0x28
                 ;    USART_SendStr(USART_0,str); //convert dec to str
                 ;
                 ;    USART_SendStr(USART_0,"\r Mode ");
000cf2 e0e0      	LDI  R30,LOW(0)
000cf3 93ea      	ST   -Y,R30
                +
000cf4 e4ed     +LDI R30 , LOW ( _0x1B7 + ( 77 ) )
000cf5 e0f2     +LDI R31 , HIGH ( _0x1B7 + ( 77 ) )
                 	__POINTW1MN _0x1B7,77
000cf6 940e 1427 	CALL SUBOPT_0x27
                 ;    ltoa(RAM_settings.MODE_of_Spi[i],str);
                +
000cf8 e1a2     +LDI R26 , LOW ( _RAM_settings + ( 6 ) )
000cf9 e0b3     +LDI R27 , HIGH ( _RAM_settings + ( 6 ) )
                 	__POINTW2MN _RAM_settings,6
000cfa 940e 143c 	CALL SUBOPT_0x29
                 ;    USART_SendStr(USART_0,str); //convert dec to str
                 ;
                 ;    USART_SendStr(USART_0,"\r Prescaller ");
000cfc e0e0      	LDI  R30,LOW(0)
000cfd 93ea      	ST   -Y,R30
                +
000cfe e5e5     +LDI R30 , LOW ( _0x1B7 + ( 85 ) )
000cff e0f2     +LDI R31 , HIGH ( _0x1B7 + ( 85 ) )
                 	__POINTW1MN _0x1B7,85
000d00 940e 1427 	CALL SUBOPT_0x27
                 ;    ltoa(RAM_settings.prescaller_of_Spi[i],str);
                +
000d02 e1a6     +LDI R26 , LOW ( _RAM_settings + ( 10 ) )
000d03 e0b3     +LDI R27 , HIGH ( _RAM_settings + ( 10 ) )
                 	__POINTW2MN _RAM_settings,10
000d04 940e 143c 	CALL SUBOPT_0x29
                 ;    USART_SendStr(USART_0,str); //convert dec to str
                 ;
                 ;    USART_SendStr(USART_0,"\r--------\r");
000d06 e0e0      	LDI  R30,LOW(0)
000d07 93ea      	ST   -Y,R30
                +
000d08 e6e3     +LDI R30 , LOW ( _0x1B7 + ( 99 ) )
000d09 e0f2     +LDI R31 , HIGH ( _0x1B7 + ( 99 ) )
                 	__POINTW1MN _0x1B7,99
000d0a 940e 1427 	CALL SUBOPT_0x27
                 ;    }
000d0c 5f1f      	SUBI R17,-1
000d0d cfda      	RJMP _0x1BC
                 _0x1BD:
                 ;//USART_FlushTxBuf(USART_0);
                 ;}
000d0e c068      	RJMP _0x20C0006
                 
                 	.DSEG
                 _0x1B7:
000200           	.BYTE 0x6E
                 ;
                 ;void print_settings_eeprom(void){
                 
                 	.CSEG
                 _print_settings_eeprom:
                 ;uint8_t i = 0;
                 ;char str[10];
                 ;
                 ;USART_SendStr(USART_0,"\r<EEPROM>");
000d0f 972a      	SBIW R28,10
000d10 931a      	ST   -Y,R17
                 ;	i -> R17
                 ;	str -> Y+1
000d11 e010      	LDI  R17,0
000d12 e0e0      	LDI  R30,LOW(0)
000d13 93ea      	ST   -Y,R30
                +
000d14 e6ee     +LDI R30 , LOW ( _0x1BE + ( 0 ) )
000d15 e0f2     +LDI R31 , HIGH ( _0x1BE + ( 0 ) )
                 	__POINTW1MN _0x1BE,0
000d16 940e 1427 	CALL SUBOPT_0x27
                 ;USART_SendStr(USART_0,"\rUART_SETTINGS\r");
000d18 e0e0      	LDI  R30,LOW(0)
000d19 93ea      	ST   -Y,R30
                +
000d1a e7e8     +LDI R30 , LOW ( _0x1BE + ( 10 ) )
000d1b e0f2     +LDI R31 , HIGH ( _0x1BE + ( 10 ) )
                 	__POINTW1MN _0x1BE,10
000d1c 940e 1427 	CALL SUBOPT_0x27
                 ;  for(i=0;i<COUNT_OF_UARTS;i++)
000d1e e010      	LDI  R17,LOW(0)
                 _0x1C0:
000d1f 3012      	CPI  R17,2
000d20 f548      	BRSH _0x1C1
                 ;    {
                 ;    USART_SendStr(USART_0,"UART ");
000d21 e0e0      	LDI  R30,LOW(0)
000d22 93ea      	ST   -Y,R30
                +
000d23 e8e8     +LDI R30 , LOW ( _0x1BE + ( 26 ) )
000d24 e0f2     +LDI R31 , HIGH ( _0x1BE + ( 26 ) )
                 	__POINTW1MN _0x1BE,26
000d25 940e 1427 	CALL SUBOPT_0x27
                 ;    ltoa(i,str);
000d27 940e 142b 	CALL SUBOPT_0x28
                 ;    USART_SendStr(USART_0,str); //convert dec to str
                 ;
                 ;    USART_SendStr(USART_0,"\r Mode ");
000d29 e0e0      	LDI  R30,LOW(0)
000d2a 93ea      	ST   -Y,R30
                +
000d2b e8ee     +LDI R30 , LOW ( _0x1BE + ( 32 ) )
000d2c e0f2     +LDI R31 , HIGH ( _0x1BE + ( 32 ) )
                 	__POINTW1MN _0x1BE,32
000d2d 940e 1427 	CALL SUBOPT_0x27
                 ;    ltoa(EE_settings.MODE_of_Uart[i],str);
000d2f 940e 1462 	CALL SUBOPT_0x2C
000d31 940e 146a 	CALL SUBOPT_0x2D
                 ;    USART_SendStr(USART_0,str); //convert dec to str
                 ;
                 ;    USART_SendStr(USART_0,"\r Speed ");
000d33 e0e0      	LDI  R30,LOW(0)
000d34 93ea      	ST   -Y,R30
                +
000d35 e9e6     +LDI R30 , LOW ( _0x1BE + ( 40 ) )
000d36 e0f2     +LDI R31 , HIGH ( _0x1BE + ( 40 ) )
                 	__POINTW1MN _0x1BE,40
000d37 940e 1427 	CALL SUBOPT_0x27
                 ;    ltoa(EE_settings.baud_of_Uart[i],str);
000d39 2fe1      	MOV  R30,R17
000d3a e0a0      	LDI  R26,LOW(_EE_settings)
000d3b e0b0      	LDI  R27,HIGH(_EE_settings)
000d3c 940e 1338 	CALL SUBOPT_0xC
000d3e 940e 1688 	CALL __EEPROMRDW
000d40 940e 1453 	CALL SUBOPT_0x2B
                 ;    USART_SendStr(USART_0,str); //convert dec to str
                 ;
                 ;    USART_SendStr(USART_0,"\r--------\r");
000d42 e0e0      	LDI  R30,LOW(0)
000d43 93ea      	ST   -Y,R30
                +
000d44 e9ef     +LDI R30 , LOW ( _0x1BE + ( 49 ) )
000d45 e0f2     +LDI R31 , HIGH ( _0x1BE + ( 49 ) )
                 	__POINTW1MN _0x1BE,49
000d46 940e 1427 	CALL SUBOPT_0x27
                 ;    }
000d48 5f1f      	SUBI R17,-1
000d49 cfd5      	RJMP _0x1C0
                 _0x1C1:
                 ;
                 ;USART_SendStr(USART_0,"\rSPI_SETTINGS\r");
000d4a e0e0      	LDI  R30,LOW(0)
000d4b 93ea      	ST   -Y,R30
                +
000d4c eaea     +LDI R30 , LOW ( _0x1BE + ( 60 ) )
000d4d e0f2     +LDI R31 , HIGH ( _0x1BE + ( 60 ) )
                 	__POINTW1MN _0x1BE,60
000d4e 940e 1427 	CALL SUBOPT_0x27
                 ;  for(i=0;i<COUNT_OF_SPI;i++)
000d50 e010      	LDI  R17,LOW(0)
                 _0x1C3:
000d51 3012      	CPI  R17,2
000d52 f520      	BRSH _0x1C4
                 ;    {
                 ;    USART_SendStr(USART_0,"SPI ");
000d53 e0e0      	LDI  R30,LOW(0)
000d54 93ea      	ST   -Y,R30
                +
000d55 ebe9     +LDI R30 , LOW ( _0x1BE + ( 75 ) )
000d56 e0f2     +LDI R31 , HIGH ( _0x1BE + ( 75 ) )
                 	__POINTW1MN _0x1BE,75
000d57 940e 1427 	CALL SUBOPT_0x27
                 ;    ltoa(i,str);
000d59 940e 142b 	CALL SUBOPT_0x28
                 ;    USART_SendStr(USART_0,str); //convert dec to str
                 ;
                 ;    USART_SendStr(USART_0,"\r Mode ");
000d5b e0e0      	LDI  R30,LOW(0)
000d5c 93ea      	ST   -Y,R30
                +
000d5d ebee     +LDI R30 , LOW ( _0x1BE + ( 80 ) )
000d5e e0f2     +LDI R31 , HIGH ( _0x1BE + ( 80 ) )
                 	__POINTW1MN _0x1BE,80
000d5f 940e 1427 	CALL SUBOPT_0x27
                 ;    ltoa(EE_settings.MODE_of_Spi[i],str);
000d61 940e 147a 	CALL SUBOPT_0x2E
000d63 940e 146a 	CALL SUBOPT_0x2D
                 ;    USART_SendStr(USART_0,str); //convert dec to str
                 ;
                 ;    USART_SendStr(USART_0,"\r Prescaller ");
000d65 e0e0      	LDI  R30,LOW(0)
000d66 93ea      	ST   -Y,R30
                +
000d67 ece6     +LDI R30 , LOW ( _0x1BE + ( 88 ) )
000d68 e0f2     +LDI R31 , HIGH ( _0x1BE + ( 88 ) )
                 	__POINTW1MN _0x1BE,88
000d69 940e 1427 	CALL SUBOPT_0x27
                 ;    ltoa(EE_settings.prescaller_of_Spi[i],str);
000d6b 940e 1482 	CALL SUBOPT_0x2F
000d6d 940e 146a 	CALL SUBOPT_0x2D
                 ;    USART_SendStr(USART_0,str); //convert dec to str
                 ;
                 ;    USART_SendStr(USART_0,"\r--------\r");
000d6f e0e0      	LDI  R30,LOW(0)
000d70 93ea      	ST   -Y,R30
                +
000d71 ede4     +LDI R30 , LOW ( _0x1BE + ( 102 ) )
000d72 e0f2     +LDI R31 , HIGH ( _0x1BE + ( 102 ) )
                 	__POINTW1MN _0x1BE,102
000d73 940e 1427 	CALL SUBOPT_0x27
                 ;    }
000d75 5f1f      	SUBI R17,-1
000d76 cfda      	RJMP _0x1C3
                 _0x1C4:
                 ;//USART_FlushTxBuf(USART_0);
                 ;}
                 _0x20C0006:
000d77 8118      	LDD  R17,Y+0
000d78 962b      	ADIW R28,11
000d79 9508      	RET
                 
                 	.DSEG
                 _0x1BE:
00026e           	.BYTE 0x71
                 ;
                 ;
                 ;void print_sys(void)
                 ;{
                 
                 	.CSEG
                 _print_sys:
                 ;char str[5];
                 ;USART_SendStr(USART_0,"\rButes_RX ");
000d7a 9725      	SBIW R28,5
                 ;	str -> Y+0
000d7b e0e0      	LDI  R30,LOW(0)
000d7c 93ea      	ST   -Y,R30
                +
000d7d edef     +LDI R30 , LOW ( _0x1C5 + ( 0 ) )
000d7e e0f2     +LDI R31 , HIGH ( _0x1C5 + ( 0 ) )
                 	__POINTW1MN _0x1C5,0
000d7f 940e 1427 	CALL SUBOPT_0x27
                 ;ltoa(RX_CNT,str);
000d81 91e0 0308 	LDS  R30,_RX_CNT
000d83 91f0 0309 	LDS  R31,_RX_CNT+1
000d85 9160 030a 	LDS  R22,_RX_CNT+2
000d87 9170 030b 	LDS  R23,_RX_CNT+3
000d89 940e 148a 	CALL SUBOPT_0x30
                 ;USART_SendStr(USART_0,str); //convert dec to str
                 ;
                 ;USART_SendStr(USART_0,"\rButes_TX ");
000d8b e0e0      	LDI  R30,LOW(0)
000d8c 93ea      	ST   -Y,R30
                +
000d8d eeea     +LDI R30 , LOW ( _0x1C5 + ( 11 ) )
000d8e e0f2     +LDI R31 , HIGH ( _0x1C5 + ( 11 ) )
                 	__POINTW1MN _0x1C5,11
000d8f 940e 1427 	CALL SUBOPT_0x27
                 ;ltoa(TX_CNT,str);
000d91 91e0 0304 	LDS  R30,_TX_CNT
000d93 91f0 0305 	LDS  R31,_TX_CNT+1
000d95 9160 0306 	LDS  R22,_TX_CNT+2
000d97 9170 0307 	LDS  R23,_TX_CNT+3
000d99 940e 148a 	CALL SUBOPT_0x30
                 ;USART_SendStr(USART_0,str); //convert dec to str
                 ;}
                 _0x20C0005:
000d9b 9625      	ADIW R28,5
000d9c 9508      	RET
                 
                 	.DSEG
                 _0x1C5:
0002df           	.BYTE 0x16
                 ;
                 ;
                 ;
                 ;#warning TODO
                 ;uint8_t get_curr_cpu_freq (void){ //     
                 
                 	.CSEG
                 ;uint8_t freq = 0;
                 ;
                 ;return freq;
                 ;	freq -> R17
                 ;}
                 ;
                 ;#warning !
                 ;void cust_delay_ms(uint16_t delay){ // 
                 ;uint32_t timecnt = SYS_TICK + delay;
                 ;while (SYS_TICK < timecnt){}
                 ;	delay -> Y+4
                 ;	timecnt -> Y+0
                 ;}
                 ;
                 ;
                 ;
                 ;
                 ;/**
                 ;void cust_ltoa(long int n, char *str;)
                 ;{
                 ;unsigned long i;
                 ;unsigned char j,p;
                 ;i=1000000000L;
                 ;p=0;
                 ;if (n<0)
                 ;   {
                 ;   n=-n;
                 ;   *str++='-';
                 ;   };
                 ;do
                 ;  {
                 ;  j=(unsigned char) (n/i);
                 ;  if (j || p || (i==1))
                 ;     {
                 ;     *str++=j+'0';
                 ;     p=1;
                 ;     }
                 ;  n%=i;
                 ;  i/=10L;
                 ;  } while (i!=0);
                 ;   *str = 0;
                 ;}
                 ;*/
                 ;//    RTOS
                 ;
                 ;#include "task_list.h"
                 ;//============================================================================
                 ;// 
                 ;//============================================================================
                 ;
                 ;void Task_Start (void)
                 ;{
                 _Task_Start:
                 ;LED_PORT  |=1<<LED1;
000d9d 9a96      	SBI  0x12,6
                 ;SetTimerTask(Task_LedOff,50); // -
000d9e 940e 1497 	CALL SUBOPT_0x31
000da0 c023      	RJMP _0x20C0004
                 ;}
                 ;
                 ;void Task_LedOff (void)
                 ;{
                 _Task_LedOff:
                 ;SetTimerTask(Task_LedOn,500);
000da1 eaeb      	LDI  R30,LOW(_Task_LedOn)
000da2 e0fd      	LDI  R31,HIGH(_Task_LedOn)
000da3 93fa      	ST   -Y,R31
000da4 93ea      	ST   -Y,R30
000da5 efe4      	LDI  R30,LOW(500)
000da6 e0f1      	LDI  R31,HIGH(500)
000da7 940e 149e 	CALL SUBOPT_0x32
                 ;LED_PORT  &= ~(1<<LED1);
000da9 9896      	CBI  0x12,6
                 ;}
000daa 9508      	RET
                 ;
                 ;void Task_LedOn (void)
                 ;{
                 _Task_LedOn:
                 ;SetTimerTask(Task_LedOff,50);
000dab 940e 1497 	CALL SUBOPT_0x31
000dad 940e 149e 	CALL SUBOPT_0x32
                 ;LED_PORT  |= (1<<LED1);
000daf 9a96      	SBI  0x12,6
                 ;}
000db0 9508      	RET
                 ;
                 ;void Task_ADC_test (void) //Upd-6     //   
                 ; {
                 ;
                 ; SetTimerTask(Task_ADC_test,5000);
                 ; }
                 ;void Task_LcdGreetImage (void) //Greeting image on start    //Upd-4
                 ;{
                 ;SetTask(LcdClear);
                 ; LcdImage(rad1Image);
                 ;SetTask(LcdUpdate);
                 ;SetTimerTask(LcdClear,2000);
                 ;SetTimerTask(Task_LcdLines,3000);
                 ;}
                 ;
                 ;void Task_LcdLines (void)      //Upd-4       // !
                 ;{
                 ;    	for (i=0; i<84; i++){
                 ;		LcdLine ( 0, 47, i, 0, 1);
                 ;        LcdLine ( 84, 47, 84-i, 0, 1);
                 ;		LcdUpdate();
                 ;		}
                 ;SetTimerTask(LcdClear,2000);
                 ;}
                 ;
                 ;void Task_AdcOnLcd (void)
                 ;{
                 ; sprintf (lcd_buf, "vref=%d ",vref);      //    
                 ; LcdString(1,1);
                 ;  sprintf (lcd_buf, "d=%d ",d);      //    
                 ; LcdString(1,2);
                 ;  sprintf (lcd_buf, "delta=%d ",delta);      //    
                 ; LcdString(1,3);
                 ;  sprintf (lcd_buf, "volt=%d ",volt);      //    
                 ; LcdString(1,4);
                 ; LcdUpdate();
                 ;}
                 ;
                 ;void Task_pars_cmd (void)
                 ;{
                 _Task_pars_cmd:
                 ;  if (USART_Get_rxCount(SYSTEM_USART) > 0) //    - 
000db1 e0e0      	LDI  R30,LOW(0)
000db2 93ea      	ST   -Y,R30
000db3 940e 0797 	CALL _USART_Get_rxCount
000db5 30e1      	CPI  R30,LOW(0x1)
000db6 f058      	BRLO _0x1CC
                 ;       {
                 ;        symbol = USART_GetChar(SYSTEM_USART);
000db7 e0e0      	LDI  R30,LOW(0)
000db8 93ea      	ST   -Y,R30
000db9 940e 07a0 	CALL _USART_GetChar
000dbb 93e0 02ff 	STS  _symbol,R30
                 ;        PARS_Parser(symbol);
000dbd 91e0 02ff 	LDS  R30,_symbol
000dbf 93ea      	ST   -Y,R30
000dc0 940e 0857 	CALL _PARS_Parser
                 ;       }
                 ;SetTimerTask(Task_pars_cmd, 25);
                 _0x1CC:
000dc2 940e 14a2 	CALL SUBOPT_0x33
                 _0x20C0004:
000dc4 93fa      	ST   -Y,R31
000dc5 93ea      	ST   -Y,R30
000dc6 940e 11c9 	CALL _SetTimerTask
                 ;}
000dc8 9508      	RET
                 ;
                 ;
                 ;void Task_LogOut (void)
                 ;{
                 ;SetTimerTask(Task_LogOut,50);
                 ;if(LogIndex){LogOut();} // -     - 
                 ;}
                 ;
                 ;
                 ;void Task_Flush_WorkLog(void){ //  
                 ;uint16_t i = 0;
                 ;while(i<512){WorkLog[i] = 0; i++;}
                 ;	i -> R16,R17
                 ;PORTD.7^=1;
                 ;}
                 ;
                 ;/*
                 ;void Task_Uart_ByfSend(void){ //  
                 ;
                 ;}*/
                 ;
                 ;void Task_SPI_ClrBuf (void){ // rx/tx  SPI
                 _Task_SPI_ClrBuf:
                 ;uint8_t i;
                 ;for(i=0;i<64;i++)
000dc9 931a      	ST   -Y,R17
                 ;	i -> R17
000dca e010      	LDI  R17,LOW(0)
                 _0x1D4:
000dcb 3410      	CPI  R17,64
000dcc f468      	BRSH _0x1D5
                 ; {
                 ;Spi0_RX_buf[i] = 0;
000dcd 2fe1      	MOV  R30,R17
000dce e0f0      	LDI  R31,0
000dcf 5fe3      	SUBI R30,LOW(-_Spi0_RX_buf_G000)
000dd0 4ff1      	SBCI R31,HIGH(-_Spi0_RX_buf_G000)
000dd1 e0a0      	LDI  R26,LOW(0)
000dd2 83a0      	STD  Z+0,R26
                 ;Spi0_TX_buf[i] = 0;
000dd3 2fe1      	MOV  R30,R17
000dd4 e0f0      	LDI  R31,0
000dd5 53e7      	SUBI R30,LOW(-_Spi0_TX_buf_G000)
000dd6 4ff2      	SBCI R31,HIGH(-_Spi0_TX_buf_G000)
000dd7 83a0      	STD  Z+0,R26
                 ;  //if(i<=SIZE_SPI_BUF_TX){Spi0_TX_buf[i] = 0;}
                 ; }
000dd8 5f1f      	SUBI R17,-1
000dd9 cff1      	RJMP _0x1D4
                 _0x1D5:
                 ;}
000dda 940c 1257 	JMP  _0x20C0001
                 ;
                 ;//=================================================
                 ;//////////////////////////I2C//////////////////////
                 ;
                 ;//============================================================================
                 ;// 
                 ;//============================================================================
                 ;
                 ;//    .
                 ;void StartWrite2EPP(void)
                 ;{
                 _StartWrite2EPP:
                 ;if (!i2c_eep_WriteByte(0xA0,0x00FF,/*(char)Usart0_RX_buf[15]*/ 9,&Writed2EEP))    //   
000ddc eae0      	LDI  R30,LOW(160)
000ddd 93ea      	ST   -Y,R30
000dde efef      	LDI  R30,LOW(255)
000ddf e0f0      	LDI  R31,HIGH(255)
000de0 93fa      	ST   -Y,R31
000de1 93ea      	ST   -Y,R30
000de2 e0e9      	LDI  R30,LOW(9)
000de3 93ea      	ST   -Y,R30
000de4 efe4      	LDI  R30,LOW(_Writed2EEP)
000de5 e0fd      	LDI  R31,HIGH(_Writed2EEP)
000de6 93fa      	ST   -Y,R31
000de7 93ea      	ST   -Y,R30
000de8 de3e      	RCALL _i2c_eep_WriteByte
000de9 30e0      	CPI  R30,0
000dea f441      	BRNE _0x1D6
                 ;    {
                 ;    SetTimerTask(StartWrite2EPP,50);                        //    50
000deb edec      	LDI  R30,LOW(_StartWrite2EPP)
000dec e0fd      	LDI  R31,HIGH(_StartWrite2EPP)
000ded 93fa      	ST   -Y,R31
000dee 93ea      	ST   -Y,R30
000def e3e2      	LDI  R30,LOW(50)
000df0 e0f0      	LDI  R31,HIGH(50)
000df1 940e 149e 	CALL SUBOPT_0x32
                 ;    }
                 ;}
                 _0x1D6:
000df3 9508      	RET
                 ;
                 ;//        
                 ;void Writed2EEP(void)
                 ;{
                 _Writed2EEP:
                 ;i2c_Do &= i2c_Free;                                            //  
000df4 940e 14a9 	CALL SUBOPT_0x34
                 ;
                 ;if(i2c_Do & (i2c_ERR_NA|i2c_ERR_BF))                        //    
000df6 f029      	BREQ _0x1D7
                 ;    {
                 ;    SetTimerTask(StartWrite2EPP,20);                        //  
000df7 edec      	LDI  R30,LOW(_StartWrite2EPP)
000df8 e0fd      	LDI  R31,HIGH(_StartWrite2EPP)
000df9 940e 14b0 	CALL SUBOPT_0x35
                 ;    }
                 ;else
000dfb c004      	RJMP _0x1D8
                 _0x1D7:
                 ;    {
                 ;    SetTask(SendAddrToSlave);        						//   ,    
000dfc e0e1      	LDI  R30,LOW(_SendAddrToSlave)
000dfd e0fe      	LDI  R31,HIGH(_SendAddrToSlave)
000dfe 940e 1343 	CALL SUBOPT_0xE
                 ;	}														//   -    2
                 _0x1D8:
                 ;}
000e00 9508      	RET
                 ;
                 ;//   SLAVE 
                 ;void SendAddrToSlave(void)
                 ;{
                 _SendAddrToSlave:
                 ;if (i2c_Do & i2c_Busy)						//   
000e01 91e0 0e67 	LDS  R30,_i2c_Do
000e03 74e0      	ANDI R30,LOW(0x40)
000e04 f041      	BREQ _0x1D9
                 ;		{
                 ;		SetTimerTask(SendAddrToSlave,100);	//    100
000e05 e0e1      	LDI  R30,LOW(_SendAddrToSlave)
000e06 e0fe      	LDI  R31,HIGH(_SendAddrToSlave)
000e07 93fa      	ST   -Y,R31
000e08 93ea      	ST   -Y,R30
000e09 e6e4      	LDI  R30,LOW(100)
000e0a e0f0      	LDI  R31,HIGH(100)
000e0b 940e 149e 	CALL SUBOPT_0x32
                 ;		}
                 ;
                 ;i2c_index = 0;								//  
                 _0x1D9:
000e0d e0e0      	LDI  R30,LOW(0)
000e0e 93e0 0e6e 	STS  _i2c_index,R30
                 ;i2c_ByteCount = 2;							//   
000e10 e0e2      	LDI  R30,LOW(2)
000e11 93e0 0e6f 	STS  _i2c_ByteCount,R30
                 ;
                 ;i2c_SlaveAddress = 0xB0;					//   0xB0
000e13 ebe0      	LDI  R30,LOW(176)
000e14 93e0 0e70 	STS  _i2c_SlaveAddress,R30
                 ;
                 ;i2c_Buffer[0] = 0x00;						//    ,    
000e16 e0e0      	LDI  R30,LOW(0)
000e17 93e0 0e6b 	STS  _i2c_Buffer,R30
                 ;i2c_Buffer[1] = 0xFF;
000e19 efef      	LDI  R30,LOW(255)
                +
000e1a 93e0 0e6c+STS _i2c_Buffer + ( 1 ) , R30
                 	__PUTB1MN _i2c_Buffer,1
                 ;
                 ;i2c_Do = i2c_sawp;							//  =  , +  
000e1c e0e4      	LDI  R30,LOW(4)
000e1d 93e0 0e67 	STS  _i2c_Do,R30
                 ;
                 ;MasterOutFunc = &SendedAddrToSlave;			//       
000e1f e2ea      	LDI  R30,LOW(_SendedAddrToSlave)
000e20 e0fe      	LDI  R31,HIGH(_SendedAddrToSlave)
000e21 93e0 0e61 	STS  _MasterOutFunc,R30
000e23 93f0 0e62 	STS  _MasterOutFunc+1,R31
                 ;ErrorOutFunc = &SendedAddrToSlave;			//    .
000e25 e2ea      	LDI  R30,LOW(_SendedAddrToSlave)
000e26 e0fe      	LDI  R31,HIGH(_SendedAddrToSlave)
000e27 940e 1418 	CALL SUBOPT_0x25
                 ;
                 ;TWCR = 1<<TWSTA|0<<TWSTO|1<<TWINT|0<<TWEA|1<<TWEN|1<<TWIE;		// !
                 ;i2c_Do |= i2c_Busy;												//  !
                 ;}
000e29 9508      	RET
                 ;
                 ;
                 ;//    IIC
                 ;void SendedAddrToSlave(void)
                 ;{
                 _SendedAddrToSlave:
                 ;i2c_Do &= i2c_Free;							//  
000e2a 940e 14a9 	CALL SUBOPT_0x34
                 ;
                 ;if(i2c_Do & (i2c_ERR_NA|i2c_ERR_BF))		//          
000e2c f021      	BREQ _0x1DA
                 ;	{
                 ;	SetTimerTask(SendAddrToSlave,20);		//  
000e2d e0e1      	LDI  R30,LOW(_SendAddrToSlave)
000e2e e0fe      	LDI  R31,HIGH(_SendAddrToSlave)
000e2f 940e 14b0 	CALL SUBOPT_0x35
                 ;	}
                 ;}
                 _0x1DA:
000e31 9508      	RET
                 ;
                 ;
                 ;//       
                 ;void SlaveControl(void)
                 ;{
                 _SlaveControl:
                 ;i2c_Do &= i2c_Free;				//  
000e32 91e0 0e67 	LDS  R30,_i2c_Do
000e34 7bef      	ANDI R30,0xBF
000e35 93e0 0e67 	STS  _i2c_Do,R30
                 ;UDR0 = i2c_InBuff[0];			//   
000e37 91e0 0e68 	LDS  R30,_i2c_InBuff
000e39 b9ec      	OUT  0xC,R30
                 ;}
000e3a 9508      	RET
                 ;
                 ;//==============================================================================
                 ;#include "init.c"
                 ;#include <adapter.h>
                 ;
                 ;inline void GPIO_init(void){
                 ; 0000 0010 inline void GPIO_init(void){
                 _GPIO_init:
                 ;PORTA=0x00; DDRA=0x00;
000e3b e0e0      	LDI  R30,LOW(0)
000e3c bbeb      	OUT  0x1B,R30
000e3d bbea      	OUT  0x1A,R30
                 ;PORTB=0x00; DDRB=0x07;
000e3e bbe8      	OUT  0x18,R30
000e3f e0e7      	LDI  R30,LOW(7)
000e40 bbe7      	OUT  0x17,R30
                 ;PORTC=0x00; DDRC=0x00;
000e41 e0e0      	LDI  R30,LOW(0)
000e42 bbe5      	OUT  0x15,R30
000e43 bbe4      	OUT  0x14,R30
                 ;PORTD=0x00; DDRD=0x00;
000e44 bbe2      	OUT  0x12,R30
000e45 bbe1      	OUT  0x11,R30
                 ;PORTE=0x00; DDRE=0x00;
000e46 b9e3      	OUT  0x3,R30
000e47 b9e2      	OUT  0x2,R30
                 ;PORTF=0x00; DDRF=0x00;
000e48 940e 1347 	CALL SUBOPT_0xF
                 ;PORTG=0x00; DDRG=0x00;
000e4a e0e0      	LDI  R30,LOW(0)
000e4b 93e0 0065 	STS  101,R30
000e4d 93e0 0064 	STS  100,R30
                 ;}
000e4f 9508      	RET
                 ;
                 ;
                 ;inline void TIM_0_init(void){// Timer/Counter 0 initialization
                 _TIM_0_init:
                 ;// Clock source: System Clock
                 ;// Clock value: Timer 0 Stopped
                 ;// Mode: Normal top=0xFF
                 ;// OC0 output: Disconnected
                 ;ASSR=0x00;
000e50 e0e0      	LDI  R30,LOW(0)
000e51 bfe0      	OUT  0x30,R30
                 ;TCCR0=0x00;
000e52 bfe3      	OUT  0x33,R30
                 ;TCNT0=0x00;
000e53 bfe2      	OUT  0x32,R30
                 ;OCR0=0x00;
000e54 bfe1      	OUT  0x31,R30
                 ;}
000e55 9508      	RET
                 ;
                 ;inline void TIM_1_init(void){// Timer/Counter 1 initialization
                 _TIM_1_init:
                 ;TCCR1A=0x00;    TCCR1B=0x00;
000e56 e0e0      	LDI  R30,LOW(0)
000e57 bdef      	OUT  0x2F,R30
000e58 bdee      	OUT  0x2E,R30
                 ;TCNT1H=0x00;    TCNT1L=0x00;
000e59 bded      	OUT  0x2D,R30
000e5a bdec      	OUT  0x2C,R30
                 ;ICR1H=0x00;     ICR1L=0x00;
000e5b bde7      	OUT  0x27,R30
000e5c bde6      	OUT  0x26,R30
                 ;OCR1AH=0x00;    OCR1AL=0x00;
000e5d bdeb      	OUT  0x2B,R30
000e5e bdea      	OUT  0x2A,R30
                 ;OCR1BH=0x00;    OCR1BL=0x00;
000e5f bde9      	OUT  0x29,R30
000e60 bde8      	OUT  0x28,R30
                 ;OCR1CH=0x00;    OCR1CL=0x00;
000e61 93e0 0079 	STS  121,R30
000e63 93e0 0078 	STS  120,R30
                 ;}
000e65 9508      	RET
                 ;
                 ;inline void TIM_2_init(void){// Timer/Counter 2 initialization
                 _TIM_2_init:
                 ;TCCR2=0x00;
000e66 e0e0      	LDI  R30,LOW(0)
000e67 bde5      	OUT  0x25,R30
                 ;TCNT2=0x00;
000e68 bde4      	OUT  0x24,R30
                 ;OCR2=0x00;
000e69 bde3      	OUT  0x23,R30
                 ;}
000e6a 9508      	RET
                 ;
                 ;inline void TIM_3_init(void){ // Timer/Counter 3 initialization
                 _TIM_3_init:
                 ;TCCR3A=0x00;    TCCR3B=0x00;
000e6b e0e0      	LDI  R30,LOW(0)
000e6c 93e0 008b 	STS  139,R30
000e6e 93e0 008a 	STS  138,R30
                 ;TCNT3H=0x00;    TCNT3L=0x00;
000e70 93e0 0089 	STS  137,R30
000e72 93e0 0088 	STS  136,R30
                 ;ICR3H=0x00;     ICR3L=0x00;
000e74 93e0 0081 	STS  129,R30
000e76 93e0 0080 	STS  128,R30
                 ;OCR3AH=0x00;    OCR3AL=0x00;
000e78 93e0 0087 	STS  135,R30
000e7a 93e0 0086 	STS  134,R30
                 ;OCR3BH=0x00;    OCR3BL=0x00;
000e7c 93e0 0085 	STS  133,R30
000e7e 93e0 0084 	STS  132,R30
                 ;OCR3CH=0x00;    OCR3CL=0x00;
000e80 93e0 0083 	STS  131,R30
000e82 93e0 0082 	STS  130,R30
                 ;}
000e84 9508      	RET
                 ;
                 ;inline void INT_init(void){// External Interrupt(s) initialization
                 _INT_init:
                 ;// INTx: Off
                 ;EICRA=0x00;
000e85 e0e0      	LDI  R30,LOW(0)
000e86 93e0 006a 	STS  106,R30
                 ;EICRB=0x00;
000e88 bfea      	OUT  0x3A,R30
                 ;EIMSK=0x00;
000e89 bfe9      	OUT  0x39,R30
                 ;
                 ;// Timer(s)/Counter(s) Interrupt(s) initialization
                 ;TIMSK=0x00;
000e8a bfe7      	OUT  0x37,R30
                 ;ETIMSK=0x00;
000e8b 93e0 007d 	STS  125,R30
                 ;}
000e8d 9508      	RET
                 ;
                 ;
                 ;inline void USART_0_init(void){// USART0 initialization
                 _USART_0_init:
                 ;// Communication Parameters: 8 Data, 1 Stop, No Parity
                 ;// USART0 Receiver: On
                 ;// USART0 Transmitter: On
                 ;// USART0 Mode: Asynchronous
                 ;// USART0 Baud Rate: 9600
                 ;UCSR0A=0x00;
000e8e e0e0      	LDI  R30,LOW(0)
000e8f b9eb      	OUT  0xB,R30
                 ;UCSR0B=0xD8;
000e90 ede8      	LDI  R30,LOW(216)
000e91 b9ea      	OUT  0xA,R30
                 ;UCSR0C=0x06;
000e92 e0e6      	LDI  R30,LOW(6)
000e93 93e0 0095 	STS  149,R30
                 ;UBRR0H=0x00;
000e95 e0e0      	LDI  R30,LOW(0)
000e96 93e0 0090 	STS  144,R30
                 ;UBRR0L=0x33;
000e98 e3e3      	LDI  R30,LOW(51)
000e99 b9e9      	OUT  0x9,R30
                 ;}
000e9a 9508      	RET
                 ;
                 ;inline void USART_1_init(void){// USART1 initialization
                 _USART_1_init:
                 ;// Communication Parameters: 8 Data, 1 Stop, No Parity
                 ;// USART1 Receiver: On
                 ;// USART1 Transmitter: On
                 ;// USART1 Mode: Asynchronous
                 ;// USART1 Baud Rate: 115200 (Double Speed Mode)
                 ;UCSR1A=0x02;
000e9b e0e2      	LDI  R30,LOW(2)
000e9c 93e0 009b 	STS  155,R30
                 ;UCSR1B=0xD8;
000e9e ede8      	LDI  R30,LOW(216)
000e9f 93e0 009a 	STS  154,R30
                 ;UCSR1C=0x06;
000ea1 e0e6      	LDI  R30,LOW(6)
000ea2 93e0 009d 	STS  157,R30
                 ;UBRR1H=0x00;
000ea4 e0e0      	LDI  R30,LOW(0)
000ea5 93e0 0098 	STS  152,R30
                 ;UBRR1L=0x08;
000ea7 e0e8      	LDI  R30,LOW(8)
000ea8 93e0 0099 	STS  153,R30
                 ;}
000eaa 9508      	RET
                 ;
                 ;/*
                 ;void SPI_init(void){// SPI initialization
                 ;// SPI Type: Master
                 ;// SPI Clock Rate: 2000,000 kHz
                 ;// SPI Clock Phase: Cycle Start
                 ;// SPI Clock Polarity: Low
                 ;// SPI Data Order: MSB First
                 ;SPCR=0xD0;
                 ;SPSR=0x00;
                 ;// Clear the SPI interrupt flag
                 ;#asm
                 ;    in   r30,spsr
                 ;    in   r30,spdr
                 ;#endasm
                 ;}*/
                 ;
                 ;inline void TWI_init(void){// TWI initialization
                 ;// Bit Rate: 400,000 kHz
                 ;TWBR=0x02;
                 ;// Two Wire Bus Slave Address: 0x0
                 ;// General Call Recognition: Off
                 ;TWAR=0x00;
                 ;// Generate Acknowledge Pulse: Off
                 ;// TWI Interrupt: On
                 ;TWCR=0x05;
                 ;TWSR=0x00;
                 ;}
                 ;
                 ;void settings_EE_cpy_R(void){ // settings transfer from eeprom to ram
                 _settings_EE_cpy_R:
                 ;uint8_t i = 0;
                 ;  for(i=0;i<COUNT_OF_UARTS;i++)
000eab 931a      	ST   -Y,R17
                 ;	i -> R17
000eac e010      	LDI  R17,0
000ead e010      	LDI  R17,LOW(0)
                 _0x1DC:
000eae 3012      	CPI  R17,2
000eaf f4d0      	BRSH _0x1DD
                 ;    {
                 ;        RAM_settings.MODE_of_Uart[i] = EE_settings.MODE_of_Uart[i];
                +
000eb0 e1a0     +LDI R26 , LOW ( _RAM_settings + ( 4 ) )
000eb1 e0b3     +LDI R27 , HIGH ( _RAM_settings + ( 4 ) )
                 	__POINTW2MN _RAM_settings,4
000eb2 2fe1      	MOV  R30,R17
000eb3 940e 1352 	CALL SUBOPT_0x11
000eb5 010f      	MOVW R0,R30
000eb6 940e 1462 	CALL SUBOPT_0x2C
000eb8 01d0      	MOVW R26,R0
000eb9 93ec      	ST   X,R30
                 ;        RAM_settings.baud_of_Uart[i] = EE_settings.baud_of_Uart[i];
000eba 2fe1      	MOV  R30,R17
000ebb 940e 14b5 	CALL SUBOPT_0x36
000ebd 010f      	MOVW R0,R30
000ebe 2fe1      	MOV  R30,R17
000ebf e0a0      	LDI  R26,LOW(_EE_settings)
000ec0 e0b0      	LDI  R27,HIGH(_EE_settings)
000ec1 940e 1338 	CALL SUBOPT_0xC
000ec3 940e 1688 	CALL __EEPROMRDW
000ec5 01d0      	MOVW R26,R0
000ec6 93ed      	ST   X+,R30
000ec7 93fc      	ST   X,R31
                 ;    }
000ec8 5f1f      	SUBI R17,-1
000ec9 cfe4      	RJMP _0x1DC
                 _0x1DD:
                 ;  for(i=0;i<COUNT_OF_SPI;i++)
000eca e010      	LDI  R17,LOW(0)
                 _0x1DF:
000ecb 3012      	CPI  R17,2
000ecc f4b0      	BRSH _0x1E0
                 ;    {
                 ;        RAM_settings.MODE_of_Spi[i] = EE_settings.MODE_of_Spi[i];
                +
000ecd e1a2     +LDI R26 , LOW ( _RAM_settings + ( 6 ) )
000ece e0b3     +LDI R27 , HIGH ( _RAM_settings + ( 6 ) )
                 	__POINTW2MN _RAM_settings,6
000ecf 2fe1      	MOV  R30,R17
000ed0 940e 1352 	CALL SUBOPT_0x11
000ed2 010f      	MOVW R0,R30
000ed3 940e 147a 	CALL SUBOPT_0x2E
000ed5 01d0      	MOVW R26,R0
000ed6 93ec      	ST   X,R30
                 ;        RAM_settings.prescaller_of_Spi[i] =  EE_settings.prescaller_of_Spi[i];
                +
000ed7 e1a6     +LDI R26 , LOW ( _RAM_settings + ( 10 ) )
000ed8 e0b3     +LDI R27 , HIGH ( _RAM_settings + ( 10 ) )
                 	__POINTW2MN _RAM_settings,10
000ed9 2fe1      	MOV  R30,R17
000eda 940e 1352 	CALL SUBOPT_0x11
000edc 010f      	MOVW R0,R30
000edd 940e 1482 	CALL SUBOPT_0x2F
000edf 01d0      	MOVW R26,R0
000ee0 93ec      	ST   X,R30
                 ;    }
000ee1 5f1f      	SUBI R17,-1
000ee2 cfe8      	RJMP _0x1DF
                 _0x1E0:
                 ;}
000ee3 940c 1257 	JMP  _0x20C0001
                 ;
                 ;inline void First_EE_init(void){ // settings transfer from eeprom to ram
                 ;uint8_t i = 0;
                 ;  for(i=0;i<COUNT_OF_UARTS;i++)
                 ;	i -> R17
                 ;    {
                 ;EE_settings.baud_of_Uart[i] = 576; //57600baud
                 ;EE_settings.MODE_of_Uart[i] = USART_NORMAL;
                 ;    }
                 ;  for(i=0;i<COUNT_OF_SPI;i++)
                 ;    {
                 ;EE_settings.MODE_of_Spi[i] = 0;
                 ;EE_settings.prescaller_of_Spi[i] = 16;
                 ;    }
                 ;}
                 ;
                 ;
                 ;void HARDWARE_init(void)
                 ;{
                 _HARDWARE_init:
                 ; GPIO_init();
000ee5 df55      	RCALL _GPIO_init
                 ; ADC_init(); //Upd-6
000ee6 da7c      	RCALL _ADC_init
                 ; adc_calibrate(); //Upd-7
000ee7 da82      	RCALL _adc_calibrate
                 ; TIM_0_init();
000ee8 df67      	RCALL _TIM_0_init
                 ; TIM_1_init();
000ee9 df6c      	RCALL _TIM_1_init
                 ; TIM_2_init();
000eea df7b      	RCALL _TIM_2_init
                 ; TIM_3_init();
000eeb df7f      	RCALL _TIM_3_init
                 ; INT_init();
000eec df98      	RCALL _INT_init
                 ; USART_0_init();
000eed dfa0      	RCALL _USART_0_init
                 ; USART_1_init();
000eee dfac      	RCALL _USART_1_init
                 ; Hard_SPI_Master_Init_default();
000eef 940e 08d7 	CALL _Hard_SPI_Master_Init_default
                 ;//TWI_init();
                 ; rtc_init(); //Timer 0 used
000ef1 db11      	RCALL _rtc_init_G000
                 ;
                 ;//i2c_init(); // I2C Bus initialization
                 ;//w1_init(); // 1 Wire Bus initialization
                 ;// 1 Wire Data port: PORTA
                 ;// 1 Wire Data bit: 2
                 ;// Note: 1 Wire port settings must be specified in the
                 ;// Project|Configure|C Compiler|Libraries|1 Wire IDE menu.
                 ;}
000ef2 9508      	RET
                 ;
                 ;void SOFTWARE_init (void){
                 _SOFTWARE_init:
                 ;#ifdef EEPROM_REINIT  //Upd-5
                 ;First_EE_init();  //   ( 1   )
                 ;#endif
                 ;settings_EE_cpy_R(); //   
000ef3 dfb7      	RCALL _settings_EE_cpy_R
                 ;
                 ;// check_after_pow_on();
                 ;// flags_init();
                 ;
                 ;//WDT_Init();//Watchdog
                 ;
                 ;USART_Init(USART_0, RAM_settings.MODE_of_Uart[USART_0], RAM_settings.baud_of_Uart[USART_0]);
000ef4 e0e0      	LDI  R30,LOW(0)
000ef5 93ea      	ST   -Y,R30
                +
000ef6 91e0 0310+LDS R30 , _RAM_settings + ( 4 )
                 	__GETB1MN _RAM_settings,4
000ef8 93ea      	ST   -Y,R30
000ef9 91e0 030c 	LDS  R30,_RAM_settings
000efb 91f0 030d 	LDS  R31,_RAM_settings+1
000efd 940e 14bd 	CALL SUBOPT_0x37
                 ;USART_Init(USART_1, RAM_settings.MODE_of_Uart[USART_1], RAM_settings.baud_of_Uart[USART_1]);
000eff e0e1      	LDI  R30,LOW(1)
000f00 93ea      	ST   -Y,R30
                +
000f01 91e0 0311+LDS R30 , _RAM_settings + ( 5 )
                 	__GETB1MN _RAM_settings,5
000f03 93ea      	ST   -Y,R30
                +
000f04 91e0 030e+LDS R30 , _RAM_settings + ( 2 )
000f06 91f0 030f+LDS R31 , _RAM_settings + ( 2 ) + 1
                 	__GETW1MN _RAM_settings,2
000f08 940e 14bd 	CALL SUBOPT_0x37
                 ;
                 ;//Soft_SPI_Master_Init();
                 ;//Hard_SPI_Master_Init_default();
                 ;#warning   !
                 ;SPI_init(SPI_0, SPI_MASTER, 1, 0, 16);
000f0a e0e0      	LDI  R30,LOW(0)
000f0b 93ea      	ST   -Y,R30
000f0c e0e1      	LDI  R30,LOW(1)
000f0d 93ea      	ST   -Y,R30
000f0e 93ea      	ST   -Y,R30
000f0f e0e0      	LDI  R30,LOW(0)
000f10 93ea      	ST   -Y,R30
000f11 e1e0      	LDI  R30,LOW(16)
000f12 93ea      	ST   -Y,R30
000f13 940e 090c 	CALL _SPI_init
                 ;LcdInit();//Upd-3 //soft spi on portA
000f15 940e 0616 	CALL _LcdInit
                 ;
                 ;//cust_I2C_init(I2C_0);
                 ;
                 ;PARSER_Init();
000f17 940e 0851 	CALL _PARSER_Init
                 ;InitRTOS();			//  
000f19 940e 11aa 	CALL _InitRTOS
                 ;
                 ;//======
                 ;Init_i2c();						//    i2c
000f1b dcf0      	RCALL _Init_i2c
                 ;Init_Slave_i2c(&SlaveControl);	//       Slave
000f1c e3e2      	LDI  R30,LOW(_SlaveControl)
000f1d e0fe      	LDI  R31,HIGH(_SlaveControl)
000f1e 93fa      	ST   -Y,R31
000f1f 93ea      	ST   -Y,R30
000f20 dcf8      	RCALL _Init_Slave_i2c
                 ;//======
                 ;
                 ;// Clear the SPI interrupt flag   //Upd-4
                 ;#asm
000f21 b1ee          in   r30,spsr
000f22 b1ef          in   r30,spdr
                 ;
                 ;#ifdef DEBUG
                 ;LogIndex=0;					//   
                 ;WorkLog[LogIndex]=1;		//   
                 ;LogIndex++;
                 ;#endif
                 ;}
000f23 9508      	RET
                 ;
                 ;
                 ;
                 ;
                 ;
                 ;
                 ;
                 ;
                 ;
                 ;
                 ;
                 ;
                 ;
                 ;
                 ;
                 ;
                 ;
                 ;
                 ;
                 ;
                 ;
                 ;
                 ;
                 ;
                 ;
                 ;
                 ;
                 ;
                 ;#include "D_Globals/global_variables.h"
                 ;#include "D_Globals/global_defines.h"
                 ;#include "PARSER/pars_hndl.c"           //Upd-8 in folder
                 ;//  
                 ;
                 ;#include <adapter.h>
                 ;
                 ;//#include "RTOS/HAL.h"
                 ;//#include "RTOS/EERTOS.c"
                 ;#include "RTOS/EERTOSHAL.h"
                 ;
                 ;void PARS_Handler(uint8_t argc, char *argv[])
                 ; 0000 0013 {
                 _PARS_Handler:
                 ;char __flash *response = error;
                 ; // uint8_t value = 0;
                 ; // uint8_t mode = 0;
                 ;  uint8_t i = 0;
                 ;
                 ; uint8_t Interface_Num = 0;
                 ; uint32_t tmp = 0;
                 ; bool Tmp_param_1 = 0;
                 ; bool Tmp_param_2 = 0;
                 ;
                 ;char str [6];
                 ;
                 ;#ifdef DEBUG
                 ;//StopRTOS();
                 ;#endif
                 ;/////////////////////SET_COMAND////////////////////////////////
                 ;/////////////////////////////////////////////////////////////////
                 ;if (!strcmpf(argv[0], Set))
000f24 972a      	SBIW R28,10
000f25 e0e0      	LDI  R30,LOW(0)
000f26 83ee      	STD  Y+6,R30
000f27 83ef      	STD  Y+7,R30
000f28 87e8      	STD  Y+8,R30
000f29 87e9      	STD  Y+9,R30
000f2a 940e 16c3 	CALL __SAVELOCR6
                 ;	argc -> Y+18
                 ;	argv -> Y+16
                 ;	*response -> R16,R17
                 ;	i -> R19
                 ;	Interface_Num -> R18
                 ;	tmp -> Y+12
                 ;	Tmp_param_1 -> R21
                 ;	Tmp_param_2 -> R20
                 ;	str -> Y+6
                +
000f2c ec0a     +LDI R16 , LOW ( _error * 2 + ( 0 ) )
000f2d e010     +LDI R17 , HIGH ( _error * 2 + ( 0 ) )
                 	__POINTWRFN 16,17,_error,0
000f2e e030      	LDI  R19,0
000f2f e020      	LDI  R18,0
000f30 e050      	LDI  R21,0
000f31 e040      	LDI  R20,0
000f32 940e 14c1 	CALL SUBOPT_0x38
000f34 e9e2      	LDI  R30,LOW(_Set*2)
000f35 e0f0      	LDI  R31,HIGH(_Set*2)
000f36 940e 14c8 	CALL SUBOPT_0x39
000f38 f011      	BREQ PC+3
000f39 940c 10b5 	JMP _0x1E7
                 ; {
                 ;#ifdef DEBUG
                 ; Put_In_Log("\r Set");
                 ;#endif
                 ;   if (argc > 1)
000f3b 89aa      	LDD  R26,Y+18
000f3c 30a2      	CPI  R26,LOW(0x2)
000f3d f410      	BRSH PC+3
000f3e 940c 10b5 	JMP _0x1E8
                 ;  {
                 ;//////////////////////////////////////////////////////////////////
                 ;/////////////////////UART_SET_START///////////////////////////////
                 ;      if (!strcmpf(argv[1], Uart))
000f40 940e 14ce 	CALL SUBOPT_0x3A
000f42 e9e6      	LDI  R30,LOW(_Uart*2)
000f43 e0f0      	LDI  R31,HIGH(_Uart*2)
000f44 940e 14c8 	CALL SUBOPT_0x39
000f46 f011      	BREQ PC+3
000f47 940c 0fca 	JMP _0x1E9
                 ;     {
                 ;#ifdef DEBUG
                 ;   Put_In_Log("\r Uart");
                 ;#endif
                 ;
                 ;       if (argc > 2)
000f49 89aa      	LDD  R26,Y+18
000f4a 30a3      	CPI  R26,LOW(0x3)
000f4b f410      	BRSH PC+3
000f4c 940c 0fca 	JMP _0x1EA
                 ;        {
                 ;          tmp = PARS_StrToUint(argv[2]);//Get number of interface
000f4e 940e 14d5 	CALL SUBOPT_0x3B
000f50 940e 14dc 	CALL SUBOPT_0x3C
                 ;          if (tmp <= COUNT_OF_UARTS){Interface_Num = tmp; response = ok;
000f52 940e 14e9 	CALL SUBOPT_0x3D
000f54 f428      	BRSH _0x1EB
000f55 852c      	LDD  R18,Y+12
000f56 ecee      	LDI  R30,LOW(_ok*2)
000f57 e0f0      	LDI  R31,HIGH(_ok*2)
000f58 018f      	MOVW R16,R30
                 ;#ifdef DEBUG
                 ;  Put_In_Log("\r Num");
                 ;#endif
                 ;          }
                 ;          else{response = largeValue; goto exit;}
000f59 c003      	RJMP _0x1EC
                 _0x1EB:
000f5a ede4      	LDI  R30,LOW(_largeValue*2)
000f5b e0f0      	LDI  R31,HIGH(_largeValue*2)
000f5c c213      	RJMP _0x23F
                 _0x1EC:
                 ;
                 ;         if (argc > 3)    //Mode
000f5d 89aa      	LDD  R26,Y+18
000f5e 30a4      	CPI  R26,LOW(0x4)
000f5f f410      	BRSH PC+3
000f60 940c 0fca 	JMP _0x1EE
                 ;        {
                 ;             if (!strcmpf(argv[3], Mode))
000f62 940e 14f1 	CALL SUBOPT_0x3E
000f64 f4b9      	BRNE _0x1EF
                 ;             {
                 ;               tmp = PARS_StrToUchar(argv[4]); //Get uart mode
000f65 940e 14fa 	CALL SUBOPT_0x3F
                 ;              if (tmp==1 || tmp==0){RAM_settings.MODE_of_Uart[Interface_Num] = tmp; response = ok;
000f67 f029      	BREQ _0x1F1
000f68 940e 1515 	CALL SUBOPT_0x40
000f6a 940e 16bd 	CALL __CPD02
000f6c f461      	BRNE _0x1F0
                 _0x1F1:
                +
000f6d e1a0     +LDI R26 , LOW ( _RAM_settings + ( 4 ) )
000f6e e0b3     +LDI R27 , HIGH ( _RAM_settings + ( 4 ) )
                 	__POINTW2MN _RAM_settings,4
000f6f 2fe2      	MOV  R30,R18
000f70 940e 1352 	CALL SUBOPT_0x11
000f72 85ac      	LDD  R26,Y+12
000f73 83a0      	STD  Z+0,R26
000f74 ecee      	LDI  R30,LOW(_ok*2)
000f75 e0f0      	LDI  R31,HIGH(_ok*2)
000f76 018f      	MOVW R16,R30
                 ;#ifdef DEBUG
                 ;  Put_In_Log("\r Mode");
                 ;#endif
                 ;               i = 2; //go to next param "speed"
000f77 e032      	LDI  R19,LOW(2)
                 ;               }
                 ;              else{response = largeValue;
000f78 c003      	RJMP _0x1F3
                 _0x1F0:
000f79 ede4      	LDI  R30,LOW(_largeValue*2)
000f7a e0f0      	LDI  R31,HIGH(_largeValue*2)
000f7b c1f4      	RJMP _0x23F
                 ;#ifdef DEBUG
                 ; //USART_SendStr(SYSTEM_USART,"\rM EXIT");
                 ; Put_In_Log("\rM EXIT");
                 ;#endif
                 ;            goto exit;}
                 _0x1F3:
                 ;             }
                 ;
                 ;             if (!strcmpf(argv[3+i], Speed)) //may be 3 or 5th param
                 _0x1EF:
000f7c 940e 151a 	CALL SUBOPT_0x41
000f7e 940e 151f 	CALL SUBOPT_0x42
000f80 eae2      	LDI  R30,LOW(_Speed*2)
000f81 e0f0      	LDI  R31,HIGH(_Speed*2)
000f82 940e 14c8 	CALL SUBOPT_0x39
000f84 f4e9      	BRNE _0x1F4
                 ;             {
                 ;              tmp = PARS_StrToUint(argv[4+i]); //get Baud Rate
000f85 940e 1524 	CALL SUBOPT_0x43
000f87 940e 151f 	CALL SUBOPT_0x42
000f89 940e 14dc 	CALL SUBOPT_0x3C
                 ;              if (tmp <= MAX_BAUD_RATE)
                +
000f8b 38a1     +CPI R26 , LOW ( 0x481 )
000f8c e0e4     +LDI R30 , HIGH ( 0x481 )
000f8d 07be     +CPC R27 , R30
000f8e e0e0     +LDI R30 , BYTE3 ( 0x481 )
000f8f 078e     +CPC R24 , R30
000f90 e0e0     +LDI R30 , BYTE4 ( 0x481 )
000f91 079e     +CPC R25 , R30
                 	__CPD2N 0x481
000f92 f460      	BRSH _0x1F5
                 ;              {
                 ;              RAM_settings.baud_of_Uart[Interface_Num] = tmp;
000f93 2fe2      	MOV  R30,R18
000f94 940e 14b5 	CALL SUBOPT_0x36
000f96 85ac      	LDD  R26,Y+12
000f97 85bd      	LDD  R27,Y+12+1
000f98 83a0      	STD  Z+0,R26
000f99 83b1      	STD  Z+1,R27
                 ;              response = ok; i = 0;
000f9a ecee      	LDI  R30,LOW(_ok*2)
000f9b e0f0      	LDI  R31,HIGH(_ok*2)
000f9c 018f      	MOVW R16,R30
000f9d e030      	LDI  R19,LOW(0)
                 ;#ifdef DEBUG
                 ;  Put_In_Log("\r ");
                 ;  Put_In_LogFl(Speed);
                 ;#endif
                 ;              }
                 ;              else{response = largeValue;
000f9e c003      	RJMP _0x1F6
                 _0x1F5:
000f9f ede4      	LDI  R30,LOW(_largeValue*2)
000fa0 e0f0      	LDI  R31,HIGH(_largeValue*2)
000fa1 c1ce      	RJMP _0x23F
                 ;#ifdef DEBUG
                 ; Put_In_Log("\rM EXIT");
                 ;#endif
                 ;             goto exit;}
                 _0x1F6:
                 ;        }
                 ;
                 ;     USART_Init(Interface_Num, RAM_settings.MODE_of_Uart[Interface_Num], RAM_settings.baud_of_Uart[Interface_Num]);
                 _0x1F4:
000fa2 932a      	ST   -Y,R18
000fa3 940e 1529 	CALL SUBOPT_0x44
000fa5 93ea      	ST   -Y,R30
000fa6 2fe2      	MOV  R30,R18
000fa7 940e 1450 	CALL SUBOPT_0x2A
000fa9 940e 160d 	CALL __GETW1P
000fab 940e 14bd 	CALL SUBOPT_0x37
                 ;     Interface_Num = 0;
000fad e020      	LDI  R18,LOW(0)
                 ;
                 ;     EE_settings.MODE_of_Uart[Interface_Num] = RAM_settings.MODE_of_Uart[Interface_Num];  //save to eeprom
                +
000fae e0a4     +LDI R26 , LOW ( _EE_settings + ( 4 ) )
000faf e0b0     +LDI R27 , HIGH ( _EE_settings + ( 4 ) )
                 	__POINTW2MN _EE_settings,4
000fb0 2fe2      	MOV  R30,R18
000fb1 940e 1352 	CALL SUBOPT_0x11
000fb3 010f      	MOVW R0,R30
000fb4 940e 1529 	CALL SUBOPT_0x44
000fb6 01d0      	MOVW R26,R0
000fb7 940e 16a0 	CALL __EEPROMWRB
                 ;     EE_settings.baud_of_Uart[Interface_Num] = RAM_settings.baud_of_Uart[Interface_Num];
000fb9 2fe2      	MOV  R30,R18
000fba e0a0      	LDI  R26,LOW(_EE_settings)
000fbb e0b0      	LDI  R27,HIGH(_EE_settings)
000fbc e0f0      	LDI  R31,0
000fbd 0fee      	LSL  R30
000fbe 1fff      	ROL  R31
000fbf 0fea      	ADD  R30,R26
000fc0 1ffb      	ADC  R31,R27
000fc1 010f      	MOVW R0,R30
000fc2 2fe2      	MOV  R30,R18
000fc3 940e 1450 	CALL SUBOPT_0x2A
000fc5 940e 160d 	CALL __GETW1P
000fc7 01d0      	MOVW R26,R0
000fc8 940e 1698 	CALL __EEPROMWRW
                 ;#ifdef DEBUG          //  !!!
                 ; Put_In_Log("\r Usart_init");
                 ; //print_settings_ram();
                 ;#endif
                 ;      }
                 ;     }
                 _0x1EE:
                 ;#ifdef DEBUG
                 ;       USART_FlushTxBuf(USART_0);
                 ;#endif
                 ;    }
                 _0x1EA:
                 ;/////////////////////UART_SET_END////////////////////////////////
                 ;/////////////////////////////////////////////////////////////////
                 ;
                 ;//////////////////////////////////////////////////////////////////
                 ;/////////////////////SPI_SET_START////////////////////////////////
                 ;     if (!strcmpf(argv[1], Spi))
                 _0x1E9:
000fca 940e 14ce 	CALL SUBOPT_0x3A
000fcc eae8      	LDI  R30,LOW(_Spi*2)
000fcd e0f0      	LDI  R31,HIGH(_Spi*2)
000fce 940e 14c8 	CALL SUBOPT_0x39
000fd0 f011      	BREQ PC+3
000fd1 940c 10b5 	JMP _0x1F7
                 ;     {
                 ;#ifdef DEBUG
                 ;    Put_In_Log("\r Spi");
                 ;#endif
                 ;       if (argc > 2)
000fd3 89aa      	LDD  R26,Y+18
000fd4 30a3      	CPI  R26,LOW(0x3)
000fd5 f410      	BRSH PC+3
000fd6 940c 10b5 	JMP _0x1F8
                 ;        {
                 ;#ifdef DEBUG
                 ;  Put_In_Log("\rS Num");
                 ;#endif
                 ;          tmp = PARS_StrToUchar(argv[2]);//Get number of interface
000fd8 940e 14d5 	CALL SUBOPT_0x3B
000fda 940e 1530 	CALL SUBOPT_0x45
                 ;          if (tmp <= COUNT_OF_SPI){Interface_Num = tmp; response = ok;}
000fdc 940e 14e9 	CALL SUBOPT_0x3D
000fde f428      	BRSH _0x1F9
000fdf 852c      	LDD  R18,Y+12
000fe0 ecee      	LDI  R30,LOW(_ok*2)
000fe1 e0f0      	LDI  R31,HIGH(_ok*2)
000fe2 018f      	MOVW R16,R30
                 ;          else{response = largeValue; goto exit;}
000fe3 c003      	RJMP _0x1FA
                 _0x1F9:
000fe4 ede4      	LDI  R30,LOW(_largeValue*2)
000fe5 e0f0      	LDI  R31,HIGH(_largeValue*2)
000fe6 c189      	RJMP _0x23F
                 _0x1FA:
                 ;
                 ;      if (argc > 3)    //Mode
000fe7 89aa      	LDD  R26,Y+18
000fe8 30a4      	CPI  R26,LOW(0x4)
000fe9 f410      	BRSH PC+3
000fea 940c 10b5 	JMP _0x1FB
                 ;      {
                 ;         if (!strcmpf(argv[3], Mode))
000fec 940e 14f1 	CALL SUBOPT_0x3E
000fee f4b9      	BRNE _0x1FC
                 ;         {
                 ;            tmp = PARS_StrToUchar(argv[4]); //Get spi mode
000fef 940e 14fa 	CALL SUBOPT_0x3F
                 ;            if (tmp==1 || tmp==0){RAM_settings.MODE_of_Spi[Interface_Num] = tmp;
000ff1 f029      	BREQ _0x1FE
000ff2 940e 1515 	CALL SUBOPT_0x40
000ff4 940e 16bd 	CALL __CPD02
000ff6 f461      	BRNE _0x1FD
                 _0x1FE:
                +
000ff7 e1a2     +LDI R26 , LOW ( _RAM_settings + ( 6 ) )
000ff8 e0b3     +LDI R27 , HIGH ( _RAM_settings + ( 6 ) )
                 	__POINTW2MN _RAM_settings,6
000ff9 2fe2      	MOV  R30,R18
000ffa 940e 1352 	CALL SUBOPT_0x11
000ffc 85ac      	LDD  R26,Y+12
000ffd 83a0      	STD  Z+0,R26
                 ;            i = 2; //go to next param "speed"
000ffe e032      	LDI  R19,LOW(2)
                 ;            response = ok;
000fff ecee      	LDI  R30,LOW(_ok*2)
001000 e0f0      	LDI  R31,HIGH(_ok*2)
001001 018f      	MOVW R16,R30
                 ; #ifdef DEBUG
                 ;Put_In_Log("\rS Mode-");
                 ;#endif
                 ;            }
                 ;            else{response = largeValue; goto exit;}
001002 c003      	RJMP _0x200
                 _0x1FD:
001003 ede4      	LDI  R30,LOW(_largeValue*2)
001004 e0f0      	LDI  R31,HIGH(_largeValue*2)
001005 c16a      	RJMP _0x23F
                 _0x200:
                 ;        }
                 ;
                 ;          if (!strcmpf(argv[3+i], Prescaller)) //Prescaller, may be 3 or 5th param
                 _0x1FC:
001006 940e 151a 	CALL SUBOPT_0x41
001008 940e 151f 	CALL SUBOPT_0x42
00100a eaec      	LDI  R30,LOW(_Prescaller*2)
00100b e0f0      	LDI  R31,HIGH(_Prescaller*2)
00100c 940e 14c8 	CALL SUBOPT_0x39
00100e f4e9      	BRNE _0x201
                 ;         {
                 ;            tmp = PARS_StrToUchar(argv[4+i]); //get SPI prescaller Rate
00100f 940e 1524 	CALL SUBOPT_0x43
001011 940e 151f 	CALL SUBOPT_0x42
001013 940e 1530 	CALL SUBOPT_0x45
                 ;            if (tmp <= MAX_SPI_PRESCALLER){RAM_settings.prescaller_of_Spi[Interface_Num] = tmp;
                +
001015 38a1     +CPI R26 , LOW ( 0x81 )
001016 e0e0     +LDI R30 , HIGH ( 0x81 )
001017 07be     +CPC R27 , R30
001018 e0e0     +LDI R30 , BYTE3 ( 0x81 )
001019 078e     +CPC R24 , R30
00101a e0e0     +LDI R30 , BYTE4 ( 0x81 )
00101b 079e     +CPC R25 , R30
                 	__CPD2N 0x81
00101c f460      	BRSH _0x202
                +
00101d e1a6     +LDI R26 , LOW ( _RAM_settings + ( 10 ) )
00101e e0b3     +LDI R27 , HIGH ( _RAM_settings + ( 10 ) )
                 	__POINTW2MN _RAM_settings,10
00101f 2fe2      	MOV  R30,R18
001020 940e 1352 	CALL SUBOPT_0x11
001022 85ac      	LDD  R26,Y+12
001023 83a0      	STD  Z+0,R26
                 ;            i += 2;
001024 5f3e      	SUBI R19,-LOW(2)
                 ;            response = ok;
001025 ecee      	LDI  R30,LOW(_ok*2)
001026 e0f0      	LDI  R31,HIGH(_ok*2)
001027 018f      	MOVW R16,R30
                 ;#ifdef DEBUG
                 ;Put_In_Log("\rS Presc-");
                 ;#endif
                 ;            }
                 ;            else{response = largeValue; goto exit;}
001028 c003      	RJMP _0x203
                 _0x202:
001029 ede4      	LDI  R30,LOW(_largeValue*2)
00102a e0f0      	LDI  R31,HIGH(_largeValue*2)
00102b c144      	RJMP _0x23F
                 _0x203:
                 ;        }
                 ;
                 ;          if (!strcmpf(argv[3+i], PhaPol)) //may be 3 or 5 or 7th  param
                 _0x201:
00102c 940e 151a 	CALL SUBOPT_0x41
00102e 940e 151f 	CALL SUBOPT_0x42
001030 ebe2      	LDI  R30,LOW(_PhaPol*2)
001031 e0f0      	LDI  R31,HIGH(_PhaPol*2)
001032 940e 14c8 	CALL SUBOPT_0x39
001034 f011      	BREQ PC+3
001035 940c 1082 	JMP _0x204
                 ;         {
                 ;            tmp = PARS_StrToUchar(argv[4+i]);//get phase/polarity mode (0-3)
001037 940e 1524 	CALL SUBOPT_0x43
001039 940e 151f 	CALL SUBOPT_0x42
00103b 940e 1530 	CALL SUBOPT_0x45
                 ;           if (tmp>=0 && tmp <= 3)
00103d 940e 16b9 	CALL __CPD20
00103f f050      	BRLO _0x206
001040 940e 1515 	CALL SUBOPT_0x40
                +
001042 30a4     +CPI R26 , LOW ( 0x4 )
001043 e0e0     +LDI R30 , HIGH ( 0x4 )
001044 07be     +CPC R27 , R30
001045 e0e0     +LDI R30 , BYTE3 ( 0x4 )
001046 078e     +CPC R24 , R30
001047 e0e0     +LDI R30 , BYTE4 ( 0x4 )
001048 079e     +CPC R25 , R30
                 	__CPD2N 0x4
001049 f008      	BRLO _0x207
                 _0x206:
00104a c034      	RJMP _0x205
                 _0x207:
                 ;           {
                 ;            switch(tmp){  //phase/polarity select
                +
00104b 85ec     +LDD R30 , Y + 12
00104c 85fd     +LDD R31 , Y + 12 + 1
00104d 856e     +LDD R22 , Y + 12 + 2
00104e 857f     +LDD R23 , Y + 12 + 3
                 	__GETD1S 12
                 ;             case 0:
00104f 940e 16b1 	CALL __CPD10
001051 f101      	BREQ _0x240
                 ;              Tmp_param_1 = 0; Tmp_param_2 = 0;
                 ;             break;
                 ;             case 1:
                +
001052 30e1     +CPI R30 , LOW ( 0x1 )
001053 e0a0     +LDI R26 , HIGH ( 0x1 )
001054 07fa     +CPC R31 , R26
001055 e0a0     +LDI R26 , BYTE3 ( 0x1 )
001056 076a     +CPC R22 , R26
001057 e0a0     +LDI R26 , BYTE4 ( 0x1 )
001058 077a     +CPC R23 , R26
                 	__CPD1N 0x1
001059 f419      	BRNE _0x20C
                 ;              Tmp_param_1 = 0; Tmp_param_2 = 1;
00105a e050      	LDI  R21,LOW(0)
00105b e041      	LDI  R20,LOW(1)
                 ;             break;
00105c c017      	RJMP _0x20A
                 ;             case 2:
                 _0x20C:
                +
00105d 30e2     +CPI R30 , LOW ( 0x2 )
00105e e0a0     +LDI R26 , HIGH ( 0x2 )
00105f 07fa     +CPC R31 , R26
001060 e0a0     +LDI R26 , BYTE3 ( 0x2 )
001061 076a     +CPC R22 , R26
001062 e0a0     +LDI R26 , BYTE4 ( 0x2 )
001063 077a     +CPC R23 , R26
                 	__CPD1N 0x2
001064 f411      	BRNE _0x20D
                 ;              Tmp_param_1 = 1; Tmp_param_2 = 0;
001065 e051      	LDI  R21,LOW(1)
001066 c00c      	RJMP _0x241
                 ;             break;
                 ;             case 3:
                 _0x20D:
                +
001067 30e3     +CPI R30 , LOW ( 0x3 )
001068 e0a0     +LDI R26 , HIGH ( 0x3 )
001069 07fa     +CPC R31 , R26
00106a e0a0     +LDI R26 , BYTE3 ( 0x3 )
00106b 076a     +CPC R22 , R26
00106c e0a0     +LDI R26 , BYTE4 ( 0x3 )
00106d 077a     +CPC R23 , R26
                 	__CPD1N 0x3
00106e f419      	BRNE _0x20F
                 ;              Tmp_param_1 = 1; Tmp_param_2 = 1;
00106f e051      	LDI  R21,LOW(1)
001070 e041      	LDI  R20,LOW(1)
                 ;             break;
001071 c002      	RJMP _0x20A
                 ;             default:
                 _0x20F:
                 ;              Tmp_param_1 = 0; Tmp_param_2 = 0;
                 _0x240:
001072 e050      	LDI  R21,LOW(0)
                 _0x241:
001073 e040      	LDI  R20,LOW(0)
                 ;             break;
                 ;            } response = ok;
                 _0x20A:
001074 ecee      	LDI  R30,LOW(_ok*2)
001075 e0f0      	LDI  R31,HIGH(_ok*2)
001076 018f      	MOVW R16,R30
                 ;#ifdef DEBUG
                 ; Put_In_Log("\rS PhaPol-");
                 ;#endif
                 ;            RAM_settings.PhaPol_of_Spi[Interface_Num] = tmp; //Upd - 1
                +
001077 e1a4     +LDI R26 , LOW ( _RAM_settings + ( 8 ) )
001078 e0b3     +LDI R27 , HIGH ( _RAM_settings + ( 8 ) )
                 	__POINTW2MN _RAM_settings,8
001079 2fe2      	MOV  R30,R18
00107a 940e 1352 	CALL SUBOPT_0x11
00107c 85ac      	LDD  R26,Y+12
00107d 83a0      	STD  Z+0,R26
                 ;           }
                 ;           else{response = wrongValue; goto exit;}
00107e c003      	RJMP _0x210
                 _0x205:
00107f eee2      	LDI  R30,LOW(_wrongValue*2)
001080 e0f0      	LDI  R31,HIGH(_wrongValue*2)
001081 c0ee      	RJMP _0x23F
                 _0x210:
                 ;         }
                 ;     SPI_init(Interface_Num, RAM_settings.MODE_of_Spi[Interface_Num], Tmp_param_2 ,Tmp_param_1, RAM_settings.prescaller_of_Spi[Interface_Num]);
                 _0x204:
001082 932a      	ST   -Y,R18
001083 940e 153a 	CALL SUBOPT_0x46
001085 93ea      	ST   -Y,R30
001086 934a      	ST   -Y,R20
001087 935a      	ST   -Y,R21
001088 940e 1541 	CALL SUBOPT_0x47
00108a 93ea      	ST   -Y,R30
00108b 940e 090c 	CALL _SPI_init
                 ;     i = 0; Tmp_param_1=0; Tmp_param_2=0;
00108d e030      	LDI  R19,LOW(0)
00108e e050      	LDI  R21,LOW(0)
00108f e040      	LDI  R20,LOW(0)
                 ;
                 ;      EE_settings.MODE_of_Spi[Interface_Num] = RAM_settings.MODE_of_Spi[Interface_Num];
                +
001090 e0a6     +LDI R26 , LOW ( _EE_settings + ( 6 ) )
001091 e0b0     +LDI R27 , HIGH ( _EE_settings + ( 6 ) )
                 	__POINTW2MN _EE_settings,6
001092 2fe2      	MOV  R30,R18
001093 940e 1352 	CALL SUBOPT_0x11
001095 010f      	MOVW R0,R30
001096 940e 153a 	CALL SUBOPT_0x46
001098 01d0      	MOVW R26,R0
001099 940e 16a0 	CALL __EEPROMWRB
                 ;      EE_settings.PhaPol_of_Spi[Interface_Num] = RAM_settings.PhaPol_of_Spi[Interface_Num];//Upd - 1
                +
00109b e0a8     +LDI R26 , LOW ( _EE_settings + ( 8 ) )
00109c e0b0     +LDI R27 , HIGH ( _EE_settings + ( 8 ) )
                 	__POINTW2MN _EE_settings,8
00109d 2fe2      	MOV  R30,R18
00109e 940e 1352 	CALL SUBOPT_0x11
0010a0 010f      	MOVW R0,R30
                +
0010a1 e1a4     +LDI R26 , LOW ( _RAM_settings + ( 8 ) )
0010a2 e0b3     +LDI R27 , HIGH ( _RAM_settings + ( 8 ) )
                 	__POINTW2MN _RAM_settings,8
0010a3 27ee      	CLR  R30
0010a4 0fa2      	ADD  R26,R18
0010a5 1fbe      	ADC  R27,R30
0010a6 91ec      	LD   R30,X
0010a7 01d0      	MOVW R26,R0
0010a8 940e 16a0 	CALL __EEPROMWRB
                 ;     // Tmp_param_2 ,Tmp_param_1,
                 ;      EE_settings.prescaller_of_Spi[Interface_Num] = RAM_settings.prescaller_of_Spi[Interface_Num];
                +
0010aa e0aa     +LDI R26 , LOW ( _EE_settings + ( 10 ) )
0010ab e0b0     +LDI R27 , HIGH ( _EE_settings + ( 10 ) )
                 	__POINTW2MN _EE_settings,10
0010ac 2fe2      	MOV  R30,R18
0010ad 940e 1352 	CALL SUBOPT_0x11
0010af 010f      	MOVW R0,R30
0010b0 940e 1541 	CALL SUBOPT_0x47
0010b2 01d0      	MOVW R26,R0
0010b3 940e 16a0 	CALL __EEPROMWRB
                 ;
                 ;
                 ;#ifdef DEBUG
                 ; Put_In_Log("\rS SpiInit");
                 ;#endif
                 ;      }
                 ;     }
                 _0x1FB:
                 ;    }
                 _0x1F8:
                 ;/////////////////////SPI_SET_END//////////////////////////////////
                 ;//////////////////////////////////////////////////////////////////
                 ;  }
                 _0x1F7:
                 ; }
                 _0x1E8:
                 ;
                 ;/////////////////////WRITE_COMAND////////////////////////////////
                 ;/////////////////////////////////////////////////////////////////
                 ;if (!strcmpf(argv[0], W)) //Write
                 _0x1E7:
0010b5 940e 14c1 	CALL SUBOPT_0x38
0010b7 ebea      	LDI  R30,LOW(_W*2)
0010b8 e0f0      	LDI  R31,HIGH(_W*2)
0010b9 940e 14c8 	CALL SUBOPT_0x39
0010bb f011      	BREQ PC+3
0010bc 940c 1124 	JMP _0x211
                 ; {
                 ; #ifdef DEBUG
                 ; Put_In_Log("\r W");
                 ;#endif
                 ;  if (argc > 1)
0010be 89aa      	LDD  R26,Y+18
0010bf 30a2      	CPI  R26,LOW(0x2)
0010c0 f410      	BRSH PC+3
0010c1 940c 1124 	JMP _0x212
                 ;  {
                 ;///////////////////////////////////////////////////////////////////
                 ;/////////////////////UART_WRITE_START//////////////////////////////
                 ;      if (!strcmpf(argv[1], Uart))
0010c3 940e 14ce 	CALL SUBOPT_0x3A
0010c5 e9e6      	LDI  R30,LOW(_Uart*2)
0010c6 e0f0      	LDI  R31,HIGH(_Uart*2)
0010c7 940e 14c8 	CALL SUBOPT_0x39
0010c9 f4e9      	BRNE _0x213
                 ;     {
                 ;       if (argc > 2)
0010ca 89aa      	LDD  R26,Y+18
0010cb 30a3      	CPI  R26,LOW(0x3)
0010cc f0d0      	BRLO _0x214
                 ;        {
                 ;          tmp = PARS_StrToUchar(argv[2]);//Get number of interface to write
0010cd 940e 14d5 	CALL SUBOPT_0x3B
0010cf 940e 1530 	CALL SUBOPT_0x45
                 ;          if (tmp <= COUNT_OF_UARTS){Interface_Num = tmp; response = ok;}
0010d1 940e 14e9 	CALL SUBOPT_0x3D
0010d3 f420      	BRSH _0x215
0010d4 852c      	LDD  R18,Y+12
0010d5 ecee      	LDI  R30,LOW(_ok*2)
0010d6 e0f0      	LDI  R31,HIGH(_ok*2)
0010d7 c002      	RJMP _0x242
                 ;          else{response = largeValue;}
                 _0x215:
0010d8 ede4      	LDI  R30,LOW(_largeValue*2)
0010d9 e0f0      	LDI  R31,HIGH(_largeValue*2)
                 _0x242:
0010da 018f      	MOVW R16,R30
                 ;      if (argc > 3)    //Data
0010db 89aa      	LDD  R26,Y+18
0010dc 30a4      	CPI  R26,LOW(0x4)
0010dd f048      	BRLO _0x217
                 ;      {
                 ;      StopRTOS; //    UART-   ,RTOS    (   )
0010de e6e3      	LDI  R30,LOW(_StopRTOS)
0010df e1f2      	LDI  R31,HIGH(_StopRTOS)
                 ;        USART_SendStr(Interface_Num, argv[3]);
0010e0 932a      	ST   -Y,R18
0010e1 940e 1548 	CALL SUBOPT_0x48
0010e3 940e 0727 	CALL _USART_SendStr
                 ;      RunRTOS;
0010e5 e5e9      	LDI  R30,LOW(_RunRTOS)
0010e6 e1f2      	LDI  R31,HIGH(_RunRTOS)
                 ;      #ifdef DEBUG
                 ;Put_In_Log("\r U D>TX ");
                 ;  ltoa(PARS_StrToUint(argv[3]),str);
                 ;Put_In_Log(str); //convert dec to str
                 ;     #endif
                 ;      }
                 ;     }
                 _0x217:
                 ;    }
                 _0x214:
                 ;/////////////////////UART_WRITE_END////////////////////////////////
                 ;///////////////////////////////////////////////////////////////////
                 ;
                 ;///////////////////////////////////////////////////////////////////
                 ;/////////////////////SPI_WRITE-READ_START//////////////////////////
                 ;    if (!strcmpf(argv[1], Spi))
                 _0x213:
0010e7 940e 14ce 	CALL SUBOPT_0x3A
0010e9 eae8      	LDI  R30,LOW(_Spi*2)
0010ea e0f0      	LDI  R31,HIGH(_Spi*2)
0010eb 940e 14c8 	CALL SUBOPT_0x39
0010ed f4f1      	BRNE _0x218
                 ;     {
                 ; #ifdef DEBUG
                 ; //USART_SendStr(SYSTEM_USART,"\r SPI ");
                 ; #endif
                 ;       if (argc > 2)
0010ee 89aa      	LDD  R26,Y+18
0010ef 30a3      	CPI  R26,LOW(0x3)
0010f0 f0d8      	BRLO _0x219
                 ;        {
                 ;          tmp = PARS_StrToUchar(argv[2]);//Get number of interface to write
0010f1 940e 14d5 	CALL SUBOPT_0x3B
0010f3 940e 1530 	CALL SUBOPT_0x45
                 ;          if (tmp <= COUNT_OF_SPI){Interface_Num = tmp; response = ok;
0010f5 940e 14e9 	CALL SUBOPT_0x3D
0010f7 f420      	BRSH _0x21A
0010f8 852c      	LDD  R18,Y+12
0010f9 ecee      	LDI  R30,LOW(_ok*2)
0010fa e0f0      	LDI  R31,HIGH(_ok*2)
0010fb c002      	RJMP _0x243
                 ; #ifdef DEBUG
                 ; //USART_SendStr(SYSTEM_USART,"\r SPI num w ");
                 ; #endif
                 ;          }
                 ;          else{response = largeValue;}
                 _0x21A:
0010fc ede4      	LDI  R30,LOW(_largeValue*2)
0010fd e0f0      	LDI  R31,HIGH(_largeValue*2)
                 _0x243:
0010fe 018f      	MOVW R16,R30
                 ;
                 ;      if (argc > 3)    //Data
0010ff 89aa      	LDD  R26,Y+18
001100 30a4      	CPI  R26,LOW(0x4)
001101 f050      	BRLO _0x21C
                 ;      {
                 ;#ifdef DEBUG
                 ;
                 ;Put_In_Log("\r S D>TX ");
                 ; ltoa(PARS_StrToUint(argv[3]),str);  //   > 65535
                 ;Put_In_Log(str); //convert dec to str
                 ; #endif
                 ;
                 ; SPI_RW_Buf(10/*array_size(argv[3])*/, argv[3], Spi0_RX_buf); //TODO  - 
001102 e0ea      	LDI  R30,LOW(10)
001103 93ea      	ST   -Y,R30
001104 940e 1548 	CALL SUBOPT_0x48
001106 e0ed      	LDI  R30,LOW(_Spi0_RX_buf_G000)
001107 e0fe      	LDI  R31,HIGH(_Spi0_RX_buf_G000)
001108 93fa      	ST   -Y,R31
001109 93ea      	ST   -Y,R30
00110a 940e 0921 	CALL _SPI_RW_Buf
                 ;
                 ; #ifdef DEBUG
                 ;Put_In_Log("\r S D<RX ");
                 ;Put_In_Log(Spi0_RX_buf);
                 ;//SetTimerTask(Task_SPI_ClrBuf, 10);
                 ; // USART_SendStr(SYSTEM_USART, Spi0_RX_buf);
                 ;  #endif
                 ;      }
                 ;     }
                 _0x21C:
                 ;    }
                 _0x219:
                 ;/////////////////////SPI_WRITE-READ_END////////////////////////////
                 ;///////////////////////////////////////////////////////////////////
                 ;
                 ;///////////////////////////////////////////////////////////////////
                 ;/////////////////////I2C_WRITE_START//////////////////////////////
                 ;    if (!strcmpf(argv[1], I2c))
                 _0x218:
00110c 940e 14ce 	CALL SUBOPT_0x3A
00110e ebe6      	LDI  R30,LOW(_I2c*2)
00110f e0f0      	LDI  R31,HIGH(_I2c*2)
001110 940e 14c8 	CALL SUBOPT_0x39
001112 f489      	BRNE _0x21D
                 ;     {
                 ; #ifdef DEBUG
                 ; //USART_SendStr(SYSTEM_USART,"\r I2c ");
                 ; #endif
                 ;       if (argc > 2)
001113 89aa      	LDD  R26,Y+18
001114 30a3      	CPI  R26,LOW(0x3)
001115 f070      	BRLO _0x21E
                 ;        {
                 ;          tmp = PARS_StrToUchar(argv[2]);//Get number of interface to write
001116 940e 14d5 	CALL SUBOPT_0x3B
001118 940e 1530 	CALL SUBOPT_0x45
                 ;          if (tmp <= COUNT_OF_I2C){Interface_Num = tmp; response = ok;
00111a 940e 14e9 	CALL SUBOPT_0x3D
00111c f420      	BRSH _0x21F
00111d 852c      	LDD  R18,Y+12
00111e ecee      	LDI  R30,LOW(_ok*2)
00111f e0f0      	LDI  R31,HIGH(_ok*2)
001120 c002      	RJMP _0x244
                 ; #ifdef DEBUG
                 ; //USART_SendStr(SYSTEM_USART,"\r I2C num w ");
                 ; #endif
                 ;          }
                 ;          else{response = largeValue;}
                 _0x21F:
001121 ede4      	LDI  R30,LOW(_largeValue*2)
001122 e0f0      	LDI  R31,HIGH(_largeValue*2)
                 _0x244:
001123 018f      	MOVW R16,R30
                 ;
                 ;      if (argc > 3)    //Data
                 ;      {
                 ;#ifdef DEBUG
                 ;
                 ;Put_In_Log("\r I2C D>TX ");
                 ; ltoa(PARS_StrToUint(argv[3]),str);  //   > 65535
                 ; USART_SendStr(SYSTEM_USART,str); //convert dec to str
                 ; #endif
                 ;
                 ; //I2C_RW_Buf(10/*array_size(argv[3])*/, argv[3], Spi0_RX_buf); //TODO  - 
                 ; //I2C_write(argv[3]);
                 ;
                 ;
                 ; #ifdef DEBUG
                 ;Put_In_Log("\r I2C D<RX ");
                 ;  USART_SendStr(SYSTEM_USART, Spi0_RX_buf);
                 ;  #endif
                 ;      }
                 ;     }
                 ;    }
                 _0x21E:
                 ;/////////////////////I2C_WRITE_END/////////////////////////////////
                 ;///////////////////////////////////////////////////////////////////
                 ;   }
                 _0x21D:
                 ; }
                 _0x212:
                 ;
                 ; /*
                 ;     uart1,
                 ;   spi ( 1 !!).
                 ;    ,
                 ;
                 ;  2,
                 ;    /  .
                 ;
                 ; + 
                 ; */
                 ;
                 ;    if (!strcmpf(argv[0], Help)){ print_help(); response = ok; }
                 _0x211:
001124 940e 14c1 	CALL SUBOPT_0x38
001126 e8ec      	LDI  R30,LOW(_Help*2)
001127 e0f0      	LDI  R31,HIGH(_Help*2)
001128 940e 14c8 	CALL SUBOPT_0x39
00112a f421      	BRNE _0x222
00112b db4f      	RCALL _print_help
00112c ecee      	LDI  R30,LOW(_ok*2)
00112d e0f0      	LDI  R31,HIGH(_ok*2)
00112e 018f      	MOVW R16,R30
                 ;    if (!strcmpf(argv[0], boot)){#asm("call 0x1E00");response = ok;}//Boot_reset "Goto bootloader"
                 _0x222:
00112f 940e 14c1 	CALL SUBOPT_0x38
001131 ece0      	LDI  R30,LOW(_boot*2)
001132 e0f0      	LDI  R31,HIGH(_boot*2)
001133 940e 14c8 	CALL SUBOPT_0x39
001135 f429      	BRNE _0x223
001136 940e 1e00 	call 0x1E00
001138 ecee      	LDI  R30,LOW(_ok*2)
001139 e0f0      	LDI  R31,HIGH(_ok*2)
00113a 018f      	MOVW R16,R30
                 ;    if (!strcmpf(argv[0], reset)){#asm("jmp 0x0000");response = ok;} //reset
                 _0x223:
00113b 940e 14c1 	CALL SUBOPT_0x38
00113d ebec      	LDI  R30,LOW(_reset*2)
00113e e0f0      	LDI  R31,HIGH(_reset*2)
00113f 940e 14c8 	CALL SUBOPT_0x39
001141 f429      	BRNE _0x224
001142 940c 0000 	jmp 0x0000
001144 ecee      	LDI  R30,LOW(_ok*2)
001145 e0f0      	LDI  R31,HIGH(_ok*2)
001146 018f      	MOVW R16,R30
                 ;    // dbg    -  (  ,   help  .)
                 ;    if (!strcmpf(argv[0], dbg)){StopRTOS(); print_settings_eeprom(); print_settings_ram(); print_sys(); response = ok; RunRTOS();}
                 _0x224:
001147 940e 14c1 	CALL SUBOPT_0x38
001149 ece6      	LDI  R30,LOW(_dbg*2)
00114a e0f0      	LDI  R31,HIGH(_dbg*2)
00114b 940e 14c8 	CALL SUBOPT_0x39
00114d f451      	BRNE _0x225
00114e 940e 1263 	CALL _StopRTOS
001150 dbbe      	RCALL _print_settings_eeprom
001151 db56      	RCALL _print_settings_ram
001152 dc27      	RCALL _print_sys
001153 ecee      	LDI  R30,LOW(_ok*2)
001154 e0f0      	LDI  R31,HIGH(_ok*2)
001155 018f      	MOVW R16,R30
001156 940e 1259 	CALL _RunRTOS
                 ;    if (!strcmpf(argv[0], "s")){ print_sys(); response = ok;}
                 _0x225:
001158 940e 14c1 	CALL SUBOPT_0x38
                +
00115a e6e3     +LDI R30 , LOW ( 2 * _0x0 + ( 193 ) )
00115b e0fa     +LDI R31 , HIGH ( 2 * _0x0 + ( 193 ) )
                 	__POINTW1FN _0x0,193
00115c 940e 14c8 	CALL SUBOPT_0x39
00115e f421      	BRNE _0x226
00115f dc1a      	RCALL _print_sys
001160 ecee      	LDI  R30,LOW(_ok*2)
001161 e0f0      	LDI  R31,HIGH(_ok*2)
001162 018f      	MOVW R16,R30
                 ;        if (!strcmpf(argv[0], "E")){SetTask(StartWrite2EPP); response = ok;}  //     .
                 _0x226:
001163 940e 14c1 	CALL SUBOPT_0x38
                +
001165 e6e5     +LDI R30 , LOW ( 2 * _0x0 + ( 195 ) )
001166 e0fa     +LDI R31 , HIGH ( 2 * _0x0 + ( 195 ) )
                 	__POINTW1FN _0x0,195
001167 940e 14c8 	CALL SUBOPT_0x39
001169 f439      	BRNE _0x227
00116a edec      	LDI  R30,LOW(_StartWrite2EPP)
00116b e0fd      	LDI  R31,HIGH(_StartWrite2EPP)
00116c 940e 1343 	CALL SUBOPT_0xE
00116e ecee      	LDI  R30,LOW(_ok*2)
00116f e0f0      	LDI  R31,HIGH(_ok*2)
                 _0x23F:
001170 018f      	MOVW R16,R30
                 ;
                 ; //EE_settings = RAM_settings; //rewrite settings to EEPROM
                 ;
                 ;exit:
                 _0x227:
                 ;  //USART_FlushTxBuf(SYSTEM_USART);
                 ;  USART_SendStrFl(SYSTEM_USART,response);
001171 e0e0      	LDI  R30,LOW(0)
001172 93ea      	ST   -Y,R30
001173 931a      	ST   -Y,R17
001174 930a      	ST   -Y,R16
001175 940e 0737 	CALL _USART_SendStrFl
                 ;#ifdef DEBUG
                 ; // RunRTOS();
                 ;#endif
                 ;}
001177 940e 16ca 	CALL __LOADLOCR6
001179 9663      	ADIW R28,19
00117a 9508      	RET
                 ;
                 ;// G_vars are here
                 ;
                 ;void main(void)
                 ; 0000 0018 {
                 _main:
                 ; 0000 0019 char i;
                 ; 0000 001A char str[7];
                 ; 0000 001B 
                 ; 0000 001C HARDWARE_init();
00117b 9727      	SBIW R28,7
                 ;	i -> R17
                 ;	str -> Y+0
00117c dd68      	RCALL _HARDWARE_init
                 ; 0000 001D SOFTWARE_init();
00117d dd75      	RCALL _SOFTWARE_init
                 ; 0000 001E 
                 ; 0000 001F #ifdef DEBUG
                 ; 0000 0020     //DDRD.7=1;//PORTD.7=1;  //Led VD2
                 ; 0000 0021     //DDRD.6=1;PORTD.6=1;    //Led VD1
                 ; 0000 0022     USART_SendStrFl(USART_1,start);
                 ; 0000 0023     USART_SendStrFl(SYSTEM_USART,start);
                 ; 0000 0024 #endif
                 ; 0000 0025 
                 ; 0000 0026 
                 ; 0000 0027 //#asm("sei") // Global enable interrupts Upd-1
                 ; 0000 0028 //sprintf(lcd_buf, "Z=%d", SYS_TICK); ;LcdString(1,3); LcdUpdate();
                 ; 0000 0029 RunRTOS();			//  .
00117e 940e 1259 	CALL _RunRTOS
                 ; 0000 002A 
                 ; 0000 002B //delay_ms(1000);//   .
                 ; 0000 002C SetTask(Task_Start);     //290uS (50/50) and (10/10)   1/1  1 
001180 e9ed      	LDI  R30,LOW(_Task_Start)
001181 e0fd      	LDI  R31,HIGH(_Task_Start)
001182 940e 1343 	CALL SUBOPT_0xE
                 ; 0000 002D 
                 ; 0000 002E ///-----------------Upd-7-----------------------------
                 ; 0000 002F //    
                 ; 0000 0030 SetTimerTask(Task_pars_cmd, 25); //Upd-6
001184 940e 14a2 	CALL SUBOPT_0x33
001186 940e 149e 	CALL SUBOPT_0x32
                 ; 0000 0031 #ifdef DEBUG                    //Upd-6
                 ; 0000 0032 SetTimerTask(Task_LogOut,50);
                 ; 0000 0033 SetTimerTask(Task_ADC_test,5000);   //Upd-6
                 ; 0000 0034 SetTask(Task_LcdGreetImage);    //Upd-4
                 ; 0000 0035 SetTask(Task_AdcOnLcd);
                 ; 0000 0036 #endif
                 ; 0000 0037 ///---------------------------------------------------
                 ; 0000 0038 
                 ; 0000 0039 
                 ; 0000 003A delay_ms(1000); //?
001188 eee8      	LDI  R30,LOW(1000)
001189 e0f3      	LDI  R31,HIGH(1000)
00118a 940e 12d6 	CALL SUBOPT_0x1
                 ; 0000 003B while (1)
                 _0x228:
                 ; 0000 003C  {
                 ; 0000 003D //wdt_reset();	//   
                 ; 0000 003E TaskManager();	//  
00118c d07a      	RCALL _TaskManager
                 ; 0000 003F  }
00118d cffe      	RJMP _0x228
                 ; 0000 0040 } //END MAIN
                 _0x22B:
00118e cfff      	RJMP _0x22B
                 ;
                 ;
                 ;
                 ;// Timer2 interrupt service routine
                 ;interrupt [RTOS_ISR] void timer2_comp_isr(void)//RTOS Interrupt 1mS
                 ; 0000 0046 {
                 _timer2_comp_isr:
00118f 940e 1356 	CALL SUBOPT_0x12
                 ; 0000 0047  TimerService();
001191 d0a2      	RCALL _TimerService
                 ; 0000 0048  SYS_TICK++;
001192 e0a0      	LDI  R26,LOW(_SYS_TICK)
001193 e0b3      	LDI  R27,HIGH(_SYS_TICK)
001194 940e 1611 	CALL __GETD1P_INC
                +
001196 5fef     +SUBI R30 , LOW ( - 1 )
001197 4fff     +SBCI R31 , HIGH ( - 1 )
001198 4f6f     +SBCI R22 , BYTE3 ( - 1 )
001199 4f7f     +SBCI R23 , BYTE4 ( - 1 )
                 	__SUBD1N -1
00119a 940e 1616 	CALL __PUTDP1_DEC
                 ; 0000 0049 }
00119c 91e9      	LD   R30,Y+
00119d bfef      	OUT  SREG,R30
00119e 91f9      	LD   R31,Y+
00119f 91e9      	LD   R30,Y+
0011a0 91b9      	LD   R27,Y+
0011a1 91a9      	LD   R26,Y+
0011a2 9199      	LD   R25,Y+
0011a3 9189      	LD   R24,Y+
0011a4 9179      	LD   R23,Y+
0011a5 9169      	LD   R22,Y+
0011a6 90f9      	LD   R15,Y+
0011a7 9019      	LD   R1,Y+
0011a8 9009      	LD   R0,Y+
0011a9 9518      	RETI
                 ;#include "RTOS/EERTOS.h"
                 	#ifndef __SLEEP_DEFINED__
                 	#endif
                 ;#include "RTOS/EERTOSHAL.h"
                 ;
                 ;
                 ;/*
                 ;    ,     50-100  16?
                 ;
                 ;DI HALT:
                 ;9  2012  21:08
                 ;  .     ,
                 ;       600 .
                 ;   .       ,
                 ;   700 ,    400 .
                 ;    500 ,    ,    .
                 ;*/
                 ;
                 ;
                 ;/*
                 ;  UPDATE -     TaskQueue,     
                 ;      MainTimer,   "",
                 ;      .
                 ;  MEMORY -58 WORDS
                 ;*/
                 ;
                 ;
                 ;
                 ;//  , .
                 ;//   -   
                 ;//volatile static TPTR	TaskQueue[TaskQueueSize+1];			//  
                 ;//update
                 ;volatile static struct
                 ;						{
                 ;						    TPTR GoToTask; 						//  
                 ;						    uint16_t Time;					//   
                 ;						}
                 ;						MainTimer[MainTimerQueueSize+1];	//  
                 ;
                 ;
                 ;// RTOS .  
                 ;  void InitRTOS(void)
                 ; 0001 0029 {
                 
                 	.CSEG
                 _InitRTOS:
                 ; 0001 002A uint8_t	index;
                 ; 0001 002B 
                 ; 0001 002C       for(index=0;index!=MainTimerQueueSize+1;index++) //   .
0011aa 931a      	ST   -Y,R17
                 ;	index -> R17
0011ab e010      	LDI  R17,LOW(0)
                 _0x20004:
0011ac 3110      	CPI  R17,16
0011ad f079      	BREQ _0x20005
                 ; 0001 002D     {
                 ; 0001 002E 	    MainTimer[index].GoToTask = Idle;
0011ae 940e 154f 	CALL SUBOPT_0x49
0011b0 940e 1556 	CALL SUBOPT_0x4A
                 ; 0001 002F 	    MainTimer[index].Time = 0;
0011b2 940e 154f 	CALL SUBOPT_0x49
0011b4 0fae      	ADD  R26,R30
0011b5 1fbf      	ADC  R27,R31
0011b6 9612      	ADIW R26,2
0011b7 e0e0      	LDI  R30,LOW(0)
0011b8 e0f0      	LDI  R31,HIGH(0)
0011b9 93ed      	ST   X+,R30
0011ba 93fc      	ST   X,R31
                 ; 0001 0030 	 }
0011bb 5f1f      	SUBI R17,-1
0011bc cfef      	RJMP _0x20004
                 _0x20005:
                 ; 0001 0031 }
0011bd c099      	RJMP _0x20C0001
                 ;
                 ;
                 ;//  -  .
                 ;  void  Idle(void)
                 ; 0001 0036 {
                 _Idle:
                 ; 0001 0037 
                 ; 0001 0038 }
0011be 9508      	RET
                 ;
                 ;
                 ;
                 ; //UPDATE
                 ; void SetTask(TPTR TS){  //       
                 ; 0001 003D void SetTask(TPTR TS){
                 _SetTask:
                 ; 0001 003E  SetTimerTask(TS,0);
                 ;	*TS -> Y+0
0011bf 81e8      	LD   R30,Y
0011c0 81f9      	LDD  R31,Y+1
0011c1 93fa      	ST   -Y,R31
0011c2 93ea      	ST   -Y,R30
0011c3 e0e0      	LDI  R30,LOW(0)
0011c4 e0f0      	LDI  R31,HIGH(0)
0011c5 940e 149e 	CALL SUBOPT_0x32
                 ; 0001 003F }
0011c7 9622      	ADIW R28,2
0011c8 9508      	RET
                 ;
                 ;
                 ;//    .   -   ,
                 ;//      .   .
                 ;
                 ;void SetTimerTask(TPTR TS, unsigned int NewTime)    //1 task ~12words
                 ; 0001 0046 {
                 _SetTimerTask:
                 ; 0001 0047 uint8_t		index=0;
                 ; 0001 0048 uint8_t		nointerrupted = 0;
                 ; 0001 0049 
                 ; 0001 004A if (STATUS_REG & (1<<Interrupt_Flag)) 			//   ,   
0011c9 931a      	ST   -Y,R17
0011ca 930a      	ST   -Y,R16
                 ;	*TS -> Y+4
                 ;	NewTime -> Y+2
                 ;	index -> R17
                 ;	nointerrupted -> R16
0011cb e010      	LDI  R17,0
0011cc e000      	LDI  R16,0
0011cd b7ef      	IN   R30,0x3F
0011ce ffe7      	SBRS R30,7
0011cf c002      	RJMP _0x20006
                 ; 0001 004B 	{
                 ; 0001 004C 	_disable_interrupts()
0011d0 94f8      	cli
                 ; 0001 004D 	nointerrupted = 1;
0011d1 e001      	LDI  R16,LOW(1)
                 ; 0001 004E 	}
                 ; 0001 004F //====================================================================
                 ; 0001 0050 // My UPDATE - not optimized
                 ; 0001 0051   for(index=0;index!=MainTimerQueueSize+1;++index)	//  
                 _0x20006:
0011d2 e010      	LDI  R17,LOW(0)
                 _0x20008:
0011d3 3110      	CPI  R17,16
0011d4 f099      	BREQ _0x20009
                 ; 0001 0052 	{
                 ; 0001 0053 	if(MainTimer[index].GoToTask == TS)				//       
0011d5 940e 154f 	CALL SUBOPT_0x49
0011d7 940e 155d 	CALL SUBOPT_0x4B
0011d9 01df      	MOVW R26,R30
0011da 81ec      	LDD  R30,Y+4
0011db 81fd      	LDD  R31,Y+4+1
0011dc 17ea      	CP   R30,R26
0011dd 07fb      	CPC  R31,R27
0011de f439      	BRNE _0x2000A
                 ; 0001 0054 		{
                 ; 0001 0055 		MainTimer[index].Time = NewTime;			//   
0011df 940e 154f 	CALL SUBOPT_0x49
0011e1 940e 1562 	CALL SUBOPT_0x4C
                 ; 0001 0056 		if (nointerrupted) 	_enable_interrupts()		//      .
0011e3 f009      	BREQ _0x2000B
0011e4 9478      	sei
                 ; 0001 0057 		return;										// .     .  
                 _0x2000B:
0011e5 c01d      	RJMP _0x20C0003
                 ; 0001 0058 		}
                 ; 0001 0059 	}
                 _0x2000A:
0011e6 5f1f      	SUBI R17,-LOW(1)
0011e7 cfeb      	RJMP _0x20008
                 _0x20009:
                 ; 0001 005A   for(index=0;index!=MainTimerQueueSize+1;++index)	//     ,    
0011e8 e010      	LDI  R17,LOW(0)
                 _0x2000D:
0011e9 3110      	CPI  R17,16
0011ea f0c1      	BREQ _0x2000E
                 ; 0001 005B 	{
                 ; 0001 005C 	if (MainTimer[index].GoToTask == Idle)
0011eb 940e 154f 	CALL SUBOPT_0x49
0011ed 940e 155d 	CALL SUBOPT_0x4B
0011ef 940e 156b 	CALL SUBOPT_0x4D
0011f1 f479      	BRNE _0x2000F
                 ; 0001 005D 		{
                 ; 0001 005E 		MainTimer[index].GoToTask = TS;			//    
0011f2 940e 154f 	CALL SUBOPT_0x49
0011f4 0fea      	ADD  R30,R26
0011f5 1ffb      	ADC  R31,R27
0011f6 81ac      	LDD  R26,Y+4
0011f7 81bd      	LDD  R27,Y+4+1
0011f8 83a0      	STD  Z+0,R26
0011f9 83b1      	STD  Z+1,R27
                 ; 0001 005F 		MainTimer[index].Time = NewTime;		//    
0011fa 940e 154f 	CALL SUBOPT_0x49
0011fc 940e 1562 	CALL SUBOPT_0x4C
                 ; 0001 0060 		if (nointerrupted) 	_enable_interrupts()	//  
0011fe f009      	BREQ _0x20010
0011ff 9478      	sei
                 ; 0001 0061 		return;									// .
                 _0x20010:
001200 c002      	RJMP _0x20C0003
                 ; 0001 0062 		}
                 ; 0001 0063 
                 ; 0001 0064 	}
                 _0x2000F:
001201 5f1f      	SUBI R17,-LOW(1)
001202 cfe6      	RJMP _0x2000D
                 _0x2000E:
                 ; 0001 0065 //====================================================================
                 ; 0001 0066 /*
                 ; 0001 0067   for(index=0;index!=MainTimerQueueSize+1;++index)	//  
                 ; 0001 0068 	{
                 ; 0001 0069 	if(MainTimer[index].GoToTask == TS)				//       
                 ; 0001 006A 		{
                 ; 0001 006B 		MainTimer[index].Time = NewTime;			//   
                 ; 0001 006C 		if (nointerrupted) 	_enable_interrupts()		//      .
                 ; 0001 006D 		return;										// .     .  
                 ; 0001 006E 		}
                 ; 0001 006F 	}
                 ; 0001 0070   for(index=0;index!=MainTimerQueueSize+1;++index)	//     ,    
                 ; 0001 0071 	{
                 ; 0001 0072 	if (MainTimer[index].GoToTask == Idle)
                 ; 0001 0073 		{
                 ; 0001 0074 		MainTimer[index].GoToTask = TS;			//    
                 ; 0001 0075 		MainTimer[index].Time = NewTime;		//    
                 ; 0001 0076 		if (nointerrupted) 	_enable_interrupts()	//  
                 ; 0001 0077 		return;									// .
                 ; 0001 0078 		}
                 ; 0001 0079 
                 ; 0001 007A 	}	*/								//    return c   -   
                 ; 0001 007B }
                 _0x20C0003:
001203 8119      	LDD  R17,Y+1
001204 8108      	LDD  R16,Y+0
001205 9626      	ADIW R28,6
001206 9508      	RET
                 ;
                 ;/*=================================================================================
                 ;  .        .
                 ;*/
                 ;
                 ;inline void TaskManager(void)
                 ; 0001 0082 {
                 _TaskManager:
                 ; 0001 0083 uint8_t		index=0;
                 ; 0001 0084 TPTR task;
                 ; 0001 0085 
                 ; 0001 0086   for(index=0;index!=MainTimerQueueSize+1;++index) {  //      
001207 940e 16c5 	CALL __SAVELOCR4
                 ;	index -> R17
                 ;	*task -> R18,R19
001209 e010      	LDI  R17,0
00120a e010      	LDI  R17,LOW(0)
                 _0x20012:
00120b 3110      	CPI  R17,16
00120c f109      	BREQ _0x20013
                 ; 0001 0087 		if ((MainTimer[index].GoToTask != Idle)&&(MainTimer[index].Time==0)) { //     ,     
00120d 940e 154f 	CALL SUBOPT_0x49
00120f 940e 155d 	CALL SUBOPT_0x4B
001211 940e 156b 	CALL SUBOPT_0x4D
001213 f049      	BREQ _0x20015
001214 940e 154f 	CALL SUBOPT_0x49
001216 0fae      	ADD  R26,R30
001217 1fbf      	ADC  R27,R31
001218 9612      	ADIW R26,2
001219 940e 160d 	CALL __GETW1P
00121b 9730      	SBIW R30,0
00121c f009      	BREQ _0x20016
                 _0x20015:
00121d c00e      	RJMP _0x20014
                 _0x20016:
                 ; 0001 0088 		    task=MainTimer[index].GoToTask;             //  
00121e 940e 154f 	CALL SUBOPT_0x49
001220 0fae      	ADD  R26,R30
001221 1fbf      	ADC  R27,R31
001222 912d      	LD   R18,X+
001223 913c      	LD   R19,X
                 ; 0001 0089 		    MainTimer[index].GoToTask = Idle;           //  
001224 940e 154f 	CALL SUBOPT_0x49
001226 940e 1556 	CALL SUBOPT_0x4A
                 ; 0001 008A             _enable_interrupts()							//  
001228 9478      	sei
                 ; 0001 008B             (task)();								    //   
001229 01f9      	MOVW R30,R18
00122a 9509      	ICALL
                 ; 0001 008C             return;                                     //    
00122b c004      	RJMP _0x20C0002
                 ; 0001 008D 		}
                 ; 0001 008E 	}
                 _0x20014:
00122c 5f1f      	SUBI R17,-LOW(1)
00122d cfdd      	RJMP _0x20012
                 _0x20013:
                 ; 0001 008F     _enable_interrupts()							//  
00122e 9478      	sei
                 ; 0001 0090 	Idle();                                     //  ,   - 
00122f df8e      	RCALL _Idle
                 ; 0001 0091 }
                 _0x20C0002:
001230 940e 16cc 	CALL __LOADLOCR4
001232 9624      	ADIW R28,4
001233 9508      	RET
                 ;
                 ;/*
                 ;  .       1.        
                 ;
                 ;To DO:       .       .
                 ;      .
                 ;       .
                 ;*/
                 ;inline void TimerService(void)
                 ; 0001 009B {
                 _TimerService:
                 ; 0001 009C uint8_t index;
                 ; 0001 009D 
                 ; 0001 009E for(index=0;index!=MainTimerQueueSize+1;index++)		//   
001234 931a      	ST   -Y,R17
                 ;	index -> R17
001235 e010      	LDI  R17,LOW(0)
                 _0x20018:
001236 3110      	CPI  R17,16
001237 f0f9      	BREQ _0x20019
                 ; 0001 009F 	{
                 ; 0001 00A0 //==========================================================================
                 ; 0001 00A1 //UPDATE
                 ; 0001 00A2          if((MainTimer[index].GoToTask != Idle) && 		    //    
                 ; 0001 00A3            (MainTimer[index].Time > 0)) {					//   , 
001238 940e 154f 	CALL SUBOPT_0x49
00123a 940e 155d 	CALL SUBOPT_0x4B
00123c 940e 156b 	CALL SUBOPT_0x4D
00123e f059      	BREQ _0x2001B
00123f 940e 154f 	CALL SUBOPT_0x49
001241 0fae      	ADD  R26,R30
001242 1fbf      	ADC  R27,R31
001243 9612      	ADIW R26,2
001244 940e 160d 	CALL __GETW1P
001246 01df      	MOVW R26,R30
001247 940e 16b5 	CALL __CPW02
001249 f008      	BRLO _0x2001C
                 _0x2001B:
00124a c00a      	RJMP _0x2001A
                 _0x2001C:
                 ; 0001 00A4             MainTimer[index].Time--;						//   .
00124b 940e 154f 	CALL SUBOPT_0x49
00124d 0fae      	ADD  R26,R30
00124e 1fbf      	ADC  R27,R31
00124f 9612      	ADIW R26,2
001250 91ed      	LD   R30,X+
001251 91fd      	LD   R31,X+
001252 9731      	SBIW R30,1
001253 93fe      	ST   -X,R31
001254 93ee      	ST   -X,R30
                 ; 0001 00A5 		};
                 _0x2001A:
                 ; 0001 00A6 	}
001255 5f1f      	SUBI R17,-1
001256 cfdf      	RJMP _0x20018
                 _0x20019:
                 ; 0001 00A7 }
                 _0x20C0001:
001257 9119      	LD   R17,Y+
001258 9508      	RET
                 ;
                 ;//  sniuk 7.1.14
                 ;void ClearTimerTask(TPTR TS)  // 
                 ; 0001 00AB {
                 ; 0001 00AC uint8_t	 index=0;
                 ; 0001 00AD uint8_t nointerrupted = 0;
                 ; 0001 00AE if (STATUS_REG & (1<<Interrupt_Flag))
                 ;	*TS -> Y+2
                 ;	index -> R17
                 ;	nointerrupted -> R16
                 ; 0001 00AF {
                 ; 0001 00B0 _disable_interrupts();
                 ; 0001 00B1 nointerrupted = 1;
                 ; 0001 00B2 }
                 ; 0001 00B3     for(index=0; index!=MainTimerQueueSize+1; ++index)
                 ; 0001 00B4     {
                 ; 0001 00B5         if(MainTimer[index].GoToTask == TS)
                 ; 0001 00B6         {
                 ; 0001 00B7             MainTimer[index].GoToTask = Idle;
                 ; 0001 00B8             MainTimer[index].Time = 0; //  
                 ; 0001 00B9             if (nointerrupted) _enable_interrupts();
                 ; 0001 00BA             return;
                 ; 0001 00BB         }
                 ; 0001 00BC     }
                 ; 0001 00BD }
                 ;
                 ;
                 ;    #warning    !
                 ;/*
                 ;
                 ; www.google.com-accounts-o8-id-id-AItOawmi18Y12U8R4bYF3i0GRgR
                 ;: C++
                 ; 8  2011   00:05
                 ; 1067
                 ;   5  :)     TaskQueue,          MainTimer,   "",     .    eertos.c
                 ;#include "eertos.h"
                 ;
                 ;//  .
                 ;volatile static struct	{
                 ;	TPTR GoToTask; 						//  
                 ;	uint16_t Time;							//   
                 ;} MainTimer[MainTimerQueueSize+1];	//  
                 ;
                 ;// RTOS .  
                 ;inline void InitRTOS(void)
                 ;{
                 ;    uint8_t	index;
                 ;
                 ;    for(index=0;index!=MainTimerQueueSize+1;index++) { //   .
                 ;		MainTimer[index].GoToTask = Idle;
                 ;        MainTimer[index].Time = 0;
                 ;	}
                 ;}
                 ;
                 ;//  -  .
                 ;void  Idle(void) {
                 ;
                 ;}
                 ;
                 ;//    .   -   ,
                 ;//      .   .
                 ;void SetTimerTask(TPTR TS, uint16_t NewTime) {
                 ;
                 ;    uint8_t		index=0;
                 ;    uint8_t		nointerrupted = 0;
                 ;
                 ;    if (STATUS_REG & (_BV(Interrupt_Flag))) { 			//   ,   
                 ;        Disable_Interrupt
                 ;        nointerrupted = 1;
                 ;	}
                 ;
                 ;    for(index=0;index!=MainTimerQueueSize+1;++index) {	//  
                 ;        if(MainTimer[index].GoToTask == TS) {			//       
                 ;            MainTimer[index].Time = NewTime;			//   
                 ;            if (nointerrupted) 	Enable_Interrupt		//      .
                 ;            return;										// .     .  
                 ;		}
                 ;	}
                 ;
                 ;    for(index=0;index!=MainTimerQueueSize+1;++index) {	//     ,    
                 ;		if (MainTimer[index].GoToTask == Idle) {
                 ;			MainTimer[index].GoToTask = TS;			//    
                 ;            MainTimer[index].Time = NewTime;		//    
                 ;            if (nointerrupted) 	Enable_Interrupt	//  
                 ;            return;									// .
                 ;		}
                 ;	}												//    return c   -   
                 ;}
                 ;
                 ;void SetTask(TPTR TS) {                             //       
                 ;    SetTimerTask(TS,0);
                 ;}
                 ;
                 ;//=================================================================================
                 ;  .        .
                 ;
                 ;
                 ;inline void TaskManager(void) {
                 ;
                 ;uint8_t		index=0;
                 ;TPTR task;
                 ;
                 ;    Disable_Interrupt				//  !!!
                 ;    for(index=0;index!=MainTimerQueueSize+1;++index) {  //      
                 ;		if ((MainTimer[index].GoToTask != Idle)&&(MainTimer[index].Time==0)) { //     ,     
                 ;		    task=MainTimer[index].GoToTask;             //  
                 ;		    MainTimer[index].GoToTask = Idle;           //  
                 ;            Enable_Interrupt							//  
                 ;            (task)();								    //   
                 ;            return;                                     //    
                 ;		}
                 ;	}
                 ;    Enable_Interrupt							//  
                 ;	Idle();                                     //  ,   - 
                 ;}
                 ;
                 ;
                 ;//  .       1.        
                 ;
                 ;inline void TimerService(void) {
                 ;
                 ;uint8_t index;
                 ;
                 ;    for(index=0;index!=MainTimerQueueSize+1;index++) {		//   
                 ;        if((MainTimer[index].GoToTask != Idle) && 		    //    
                 ;           (MainTimer[index].Time > 0)) {					//   , 
                 ;            MainTimer[index].Time--;						//   .
                 ;		};
                 ;	}
                 ;}
                 ;
                 ;*/
                 ;#include "RTOS/EERTOSHAL.h"
                 	#ifndef __SLEEP_DEFINED__
                 	#endif
                 ;
                 ;//RTOS   
                 ;  void RunRTOS (void)
                 ; 0002 0005 {
                 
                 	.CSEG
                 _RunRTOS:
                 ; 0002 0006 TCCR2 = (1<<WGM21)|(1<<CS22)|(0<<CS20)|(0<<CS21); // Freq = CK/256 -    
001259 e0ec      	LDI  R30,LOW(12)
00125a bde5      	OUT  0x25,R30
                 ; 0002 0007 										         //     
                 ; 0002 0008 TCNT2 = 0;								//    
00125b e0e0      	LDI  R30,LOW(0)
00125c bde4      	OUT  0x24,R30
                 ; 0002 0009 OCR2  = LO(TimerDivider); 				//     
00125d e3ee      	LDI  R30,LOW(62)
00125e bde3      	OUT  0x23,R30
                 ; 0002 000A TIMSK = (0<<TOIE0)|(1<<OCIE2);
00125f e8e0      	LDI  R30,LOW(128)
001260 bfe7      	OUT  0x37,R30
                 ; 0002 000B #asm("sei");                             //   RTOS -  
001261 9478      	sei
                 ; 0002 000C }
001262 9508      	RET
                 ;
                 ;
                 ;//RTOS    
                 ;  void StopRTOS (void)//    
                 ; 0002 0011 {
                 _StopRTOS:
                 ; 0002 0012 TCCR2 = (0<<CS21)|(1<<CS22)|(1<<CS20); // Freq = CK/1024
001263 e0e5      	LDI  R30,LOW(5)
001264 bde5      	OUT  0x25,R30
                 ; 0002 0013 }
001265 9508      	RET
                 ;
                 ;
                 ;//RTOS   
                 ;  void FullStopRTOS (void)
                 ; 0002 0018 {
                 ; 0002 0019 #asm("cli");
                 ; 0002 001A TCCR2 = 0;                        //    
                 ; 0002 001B TIMSK = (0<<TOIE0)|(0<<OCIE2);	 //   RTOS -  
                 ; 0002 001C #asm("sei");
                 ; 0002 001D }
                 
                 	.CSEG
                 	#ifndef __SLEEP_DEFINED__
                 	#endif
                 
                 	.CSEG
                 
                 	.CSEG
                 _strcmpf:
001266 91e9          ld   r30,y+
001267 91f9          ld   r31,y+
001268 91a9          ld   r26,y+
001269 91b9          ld   r27,y+
                 strcmpf0:
00126a 901d          ld   r1,x+
00126b 9005      	lpm  r0,z+
00126c 1401          cp   r0,r1
00126d f421          brne strcmpf1
00126e 2000          tst  r0
00126f f7d1          brne strcmpf0
                 strcmpf3:
001270 27ee          clr  r30
001271 9508          ret
                 strcmpf1:
001272 1810          sub  r1,r0
001273 f3e1          breq strcmpf3
001274 e0e1          ldi  r30,1
001275 f408          brcc strcmpf2
001276 50e2          subi r30,2
                 strcmpf2:
001277 9508          ret
                 
                 	.CSEG
                 _ltoa:
001278 9724      	SBIW R28,4
001279 931a      	ST   -Y,R17
00127a 930a      	ST   -Y,R16
                +
00127b e0e0     +LDI R30 , LOW ( 0x3B9ACA00 )
00127c ecfa     +LDI R31 , HIGH ( 0x3B9ACA00 )
00127d e96a     +LDI R22 , BYTE3 ( 0x3B9ACA00 )
00127e e37b     +LDI R23 , BYTE4 ( 0x3B9ACA00 )
                 	__GETD1N 0x3B9ACA00
                +
00127f 83ea     +STD Y + 2 , R30
001280 83fb     +STD Y + 2 + 1 , R31
001281 836c     +STD Y + 2 + 2 , R22
001282 837d     +STD Y + 2 + 3 , R23
                 	__PUTD1S 2
001283 e000      	LDI  R16,LOW(0)
001284 85ab      	LDD  R26,Y+11
001285 23aa      	TST  R26
001286 f472      	BRPL _0x2060003
                +
001287 85e8     +LDD R30 , Y + 8
001288 85f9     +LDD R31 , Y + 8 + 1
001289 856a     +LDD R22 , Y + 8 + 2
00128a 857b     +LDD R23 , Y + 8 + 3
                 	__GETD1S 8
00128b 940e 158d 	CALL __ANEGD1
                +
00128d 87e8     +STD Y + 8 , R30
00128e 87f9     +STD Y + 8 + 1 , R31
00128f 876a     +STD Y + 8 + 2 , R22
001290 877b     +STD Y + 8 + 3 , R23
                 	__PUTD1S 8
001291 940e 1571 	CALL SUBOPT_0x4E
001293 e2ed      	LDI  R30,LOW(45)
001294 93ec      	ST   X,R30
                 _0x2060003:
                 _0x2060005:
001295 940e 1578 	CALL SUBOPT_0x4F
001297 940e 15e4 	CALL __DIVD21U
001299 2f1e      	MOV  R17,R30
00129a 3010      	CPI  R17,0
00129b f471      	BRNE _0x2060008
00129c 3000      	CPI  R16,0
00129d f461      	BRNE _0x2060008
                +
00129e 81aa     +LDD R26 , Y + 2
00129f 81bb     +LDD R27 , Y + 2 + 1
0012a0 818c     +LDD R24 , Y + 2 + 2
0012a1 819d     +LDD R25 , Y + 2 + 3
                 	__GETD2S 2
                +
0012a2 30a1     +CPI R26 , LOW ( 0x1 )
0012a3 e0e0     +LDI R30 , HIGH ( 0x1 )
0012a4 07be     +CPC R27 , R30
0012a5 e0e0     +LDI R30 , BYTE3 ( 0x1 )
0012a6 078e     +CPC R24 , R30
0012a7 e0e0     +LDI R30 , BYTE4 ( 0x1 )
0012a8 079e     +CPC R25 , R30
                 	__CPD2N 0x1
0012a9 f431      	BRNE _0x2060007
                 _0x2060008:
0012aa 940e 1571 	CALL SUBOPT_0x4E
0012ac 2fe1      	MOV  R30,R17
0012ad 5de0      	SUBI R30,-LOW(48)
0012ae 93ec      	ST   X,R30
0012af e001      	LDI  R16,LOW(1)
                 _0x2060007:
0012b0 940e 1578 	CALL SUBOPT_0x4F
0012b2 940e 1609 	CALL __MODD21U
                +
0012b4 87e8     +STD Y + 8 , R30
0012b5 87f9     +STD Y + 8 + 1 , R31
0012b6 876a     +STD Y + 8 + 2 , R22
0012b7 877b     +STD Y + 8 + 3 , R23
                 	__PUTD1S 8
                +
0012b8 81aa     +LDD R26 , Y + 2
0012b9 81bb     +LDD R27 , Y + 2 + 1
0012ba 818c     +LDD R24 , Y + 2 + 2
0012bb 819d     +LDD R25 , Y + 2 + 3
                 	__GETD2S 2
                +
0012bc e0ea     +LDI R30 , LOW ( 0xA )
0012bd e0f0     +LDI R31 , HIGH ( 0xA )
0012be e060     +LDI R22 , BYTE3 ( 0xA )
0012bf e070     +LDI R23 , BYTE4 ( 0xA )
                 	__GETD1N 0xA
0012c0 940e 15e4 	CALL __DIVD21U
                +
0012c2 83ea     +STD Y + 2 , R30
0012c3 83fb     +STD Y + 2 + 1 , R31
0012c4 836c     +STD Y + 2 + 2 , R22
0012c5 837d     +STD Y + 2 + 3 , R23
                 	__PUTD1S 2
0012c6 940e 16b1 	CALL __CPD10
0012c8 f661      	BRNE _0x2060005
0012c9 81ae      	LDD  R26,Y+6
0012ca 81bf      	LDD  R27,Y+6+1
0012cb e0e0      	LDI  R30,LOW(0)
0012cc 93ec      	ST   X,R30
0012cd 8119      	LDD  R17,Y+1
0012ce 8108      	LDD  R16,Y+0
0012cf 962c      	ADIW R28,12
0012d0 9508      	RET
                 
                 	.DSEG
                 
                 	.CSEG
                 
                 	.CSEG
                 
                 	.CSEG
                 
                 	.DSEG
                 ___ds1820_scratch_pad:
0002f5           	.BYTE 0x9
                 _saved_state:
0002fe           	.BYTE 0x1
                 _symbol:
0002ff           	.BYTE 0x1
                 _SYS_TICK:
000300           	.BYTE 0x4
                 _TX_CNT:
000304           	.BYTE 0x4
                 _RX_CNT:
000308           	.BYTE 0x4
                 
                 	.ESEG
                 _EE_settings:
000000           	.BYTE 0xC
                 
                 	.DSEG
                 _RAM_settings:
00030c           	.BYTE 0xC
                 _WorkLog_G000:
000318           	.BYTE 0x200
                 _LogIndex_G000:
000518           	.BYTE 0x2
                 _lcd_buf:
00051a           	.BYTE 0xF
                 _LcdCache:
000529           	.BYTE 0x1F8
                 _Usart0_TX_buf_G000:
000721           	.BYTE 0x200
                 _Usart0_txBufTail_G000:
000921           	.BYTE 0x2
                 _Usart0_txBufHead_G000:
000923           	.BYTE 0x2
                 _Usart1_TX_buf_G000:
000925           	.BYTE 0x200
                 _Usart1_txBufTail_G000:
000b25           	.BYTE 0x2
                 _Usart1_txBufHead_G000:
000b27           	.BYTE 0x2
                 _Usart0_RX_buf_G000:
000b29           	.BYTE 0x100
                 _Usart0_rxBufTail_G000:
000c29           	.BYTE 0x2
                 _Usart0_rxBufHead_G000:
000c2b           	.BYTE 0x2
                 _Usart0_rxCount_G000:
000c2d           	.BYTE 0x2
                 _Usart1_RX_buf_G000:
000c2f           	.BYTE 0x100
                 _Usart1_rxBufTail_G000:
000d2f           	.BYTE 0x2
                 _Usart1_rxBufHead_G000:
000d31           	.BYTE 0x2
                 _Usart1_rxCount_G000:
000d33           	.BYTE 0x2
                 _buf:
000d35           	.BYTE 0x80
                 _argv:
000db5           	.BYTE 0x14
                 _Spi0_TX_buf_G000:
000dc9           	.BYTE 0x40
                 _Spi0_txBufTail_G000:
000e09           	.BYTE 0x2
                 _Spi0_txBufHead_G000:
000e0b           	.BYTE 0x2
                 _Spi0_RX_buf_G000:
000e0d           	.BYTE 0x40
                 _adc_result:
000e4d           	.BYTE 0x2
                 _vref:
000e4f           	.BYTE 0x2
                 _volt:
000e51           	.BYTE 0x2
                 _delta:
000e53           	.BYTE 0x2
                 _adc_tmp:
000e55           	.BYTE 0x2
                 _d:
000e57           	.BYTE 0x2
                 _avcc:
000e59           	.BYTE 0x2
                 _adc_calib_cnt:
000e5b           	.BYTE 0x2
                 _t:
000e5d           	.BYTE 0x4
                 _MasterOutFunc:
000e61           	.BYTE 0x2
                 _SlaveOutFunc:
000e63           	.BYTE 0x2
                 _ErrorOutFunc:
000e65           	.BYTE 0x2
                 _i2c_Do:
000e67           	.BYTE 0x1
                 _i2c_InBuff:
000e68           	.BYTE 0x1
                 _i2c_OutBuff:
000e69           	.BYTE 0x1
                 _i2c_SlaveIndex:
000e6a           	.BYTE 0x1
                 _i2c_Buffer:
000e6b           	.BYTE 0x3
                 _i2c_index:
000e6e           	.BYTE 0x1
                 _i2c_ByteCount:
000e6f           	.BYTE 0x1
                 _i2c_SlaveAddress:
000e70           	.BYTE 0x1
                 _i2c_PageAddress:
000e71           	.BYTE 0x2
                 _i2c_PageAddrIndex:
000e73           	.BYTE 0x1
                 _i2c_PageAddrCount:
000e74           	.BYTE 0x1
                 _MainTimer_G001:
000e75           	.BYTE 0x40
                 __seed_G103:
000eb5           	.BYTE 0x4
                 
                 	.CSEG
                 ;OPTIMIZER ADDED SUBROUTINE, CALLED 8 TIMES, CODE SIZE REDUCTION:18 WORDS
                 SUBOPT_0x0:
0012d1 93ea      	ST   -Y,R30
0012d2 e0e0      	LDI  R30,LOW(0)
0012d3 93ea      	ST   -Y,R30
0012d4 940c 05cb 	JMP  _LcdSend
                 
                 ;OPTIMIZER ADDED SUBROUTINE, CALLED 3 TIMES, CODE SIZE REDUCTION:1 WORDS
                 SUBOPT_0x1:
0012d6 93fa      	ST   -Y,R31
0012d7 93ea      	ST   -Y,R30
0012d8 940c 1581 	JMP  _delay_ms
                 
                 ;OPTIMIZER ADDED SUBROUTINE, CALLED 2 TIMES, CODE SIZE REDUCTION:1 WORDS
                 SUBOPT_0x2:
0012da e0e0      	LDI  R30,LOW(0)
0012db 93e0 0923 	STS  _Usart0_txBufHead_G000,R30
0012dd 93e0 0924 	STS  _Usart0_txBufHead_G000+1,R30
0012df 9508      	RET
                 
                 ;OPTIMIZER ADDED SUBROUTINE, CALLED 4 TIMES, CODE SIZE REDUCTION:3 WORDS
                 SUBOPT_0x3:
0012e0 81ea      	LDD  R30,Y+2
0012e1 81fb      	LDD  R31,Y+2+1
0012e2 2766      	CLR  R22
0012e3 2777      	CLR  R23
0012e4 9508      	RET
                 
                 ;OPTIMIZER ADDED SUBROUTINE, CALLED 2 TIMES, CODE SIZE REDUCTION:12 WORDS
                 SUBOPT_0x4:
                +
0012e5 e1a0     +LDI R26 , LOW ( 0x10 )
0012e6 e0b0     +LDI R27 , HIGH ( 0x10 )
0012e7 e080     +LDI R24 , BYTE3 ( 0x10 )
0012e8 e090     +LDI R25 , BYTE4 ( 0x10 )
                 	__GETD2N 0x10
0012e9 940e 15ab 	CALL __MULD12U
                +
0012eb e0a0     +LDI R26 , LOW ( 0xF42400 )
0012ec e2b4     +LDI R27 , HIGH ( 0xF42400 )
0012ed ef84     +LDI R24 , BYTE3 ( 0xF42400 )
0012ee e090     +LDI R25 , BYTE4 ( 0xF42400 )
                 	__GETD2N 0xF42400
0012ef 940e 15e4 	CALL __DIVD21U
                +
0012f1 50e1     +SUBI R30 , LOW ( 1 )
0012f2 40f0     +SBCI R31 , HIGH ( 1 )
0012f3 4060     +SBCI R22 , BYTE3 ( 1 )
0012f4 4070     +SBCI R23 , BYTE4 ( 1 )
                 	__SUBD1N 1
0012f5 018f      	MOVW R16,R30
0012f6 9508      	RET
                 
                 ;OPTIMIZER ADDED SUBROUTINE, CALLED 2 TIMES, CODE SIZE REDUCTION:13 WORDS
                 SUBOPT_0x5:
                +
0012f7 e0a8     +LDI R26 , LOW ( 0x8 )
0012f8 e0b0     +LDI R27 , HIGH ( 0x8 )
0012f9 e080     +LDI R24 , BYTE3 ( 0x8 )
0012fa e090     +LDI R25 , BYTE4 ( 0x8 )
                 	__GETD2N 0x8
0012fb 940e 15ab 	CALL __MULD12U
                +
0012fd e0a0     +LDI R26 , LOW ( 0xF42400 )
0012fe e2b4     +LDI R27 , HIGH ( 0xF42400 )
0012ff ef84     +LDI R24 , BYTE3 ( 0xF42400 )
001300 e090     +LDI R25 , BYTE4 ( 0xF42400 )
                 	__GETD2N 0xF42400
001301 940e 15e4 	CALL __DIVD21U
                +
001303 50e1     +SUBI R30 , LOW ( 1 )
001304 40f0     +SBCI R31 , HIGH ( 1 )
001305 4060     +SBCI R22 , BYTE3 ( 1 )
001306 4070     +SBCI R23 , BYTE4 ( 1 )
                 	__SUBD1N 1
001307 018f      	MOVW R16,R30
001308 e0e2      	LDI  R30,LOW(2)
001309 9508      	RET
                 
                 ;OPTIMIZER ADDED SUBROUTINE, CALLED 2 TIMES, CODE SIZE REDUCTION:1 WORDS
                 SUBOPT_0x6:
00130a e0e0      	LDI  R30,LOW(0)
00130b 93e0 0b27 	STS  _Usart1_txBufHead_G000,R30
00130d 93e0 0b28 	STS  _Usart1_txBufHead_G000+1,R30
00130f 9508      	RET
                 
                 ;OPTIMIZER ADDED SUBROUTINE, CALLED 2 TIMES, CODE SIZE REDUCTION:1 WORDS
                 SUBOPT_0x7:
001310 93ea      	ST   -Y,R30
001311 93fa      	ST   -Y,R31
001312 b7ef      	IN   R30,SREG
001313 93ea      	ST   -Y,R30
001314 931a      	ST   -Y,R17
001315 930a      	ST   -Y,R16
001316 9508      	RET
                 
                 ;OPTIMIZER ADDED SUBROUTINE, CALLED 7 TIMES, CODE SIZE REDUCTION:15 WORDS
                 SUBOPT_0x8:
001317 91ed      	LD   R30,X+
001318 91fd      	LD   R31,X+
001319 9631      	ADIW R30,1
00131a 93fe      	ST   -X,R31
00131b 93ee      	ST   -X,R30
00131c 9508      	RET
                 
                 ;OPTIMIZER ADDED SUBROUTINE, CALLED 2 TIMES, CODE SIZE REDUCTION:6 WORDS
                 SUBOPT_0x9:
00131d 91ed      	LD   R30,X+
00131e 91fd      	LD   R31,X+
00131f 9731      	SBIW R30,1
001320 93fe      	ST   -X,R31
001321 93ee      	ST   -X,R30
001322 b7ef      	IN   R30,0x3F
001323 2be0      	OR   R30,R16
001324 bfef      	OUT  0x3F,R30
001325 2fe1      	MOV  R30,R17
001326 8119      	LDD  R17,Y+1
001327 8108      	LDD  R16,Y+0
001328 9508      	RET
                 
                 ;OPTIMIZER ADDED SUBROUTINE, CALLED 2 TIMES, CODE SIZE REDUCTION:2 WORDS
                 SUBOPT_0xA:
001329 93aa      	ST   -Y,R26
00132a 93ba      	ST   -Y,R27
00132b 93ea      	ST   -Y,R30
00132c 93fa      	ST   -Y,R31
00132d b7ef      	IN   R30,SREG
00132e 93ea      	ST   -Y,R30
00132f 931a      	ST   -Y,R17
001330 9508      	RET
                 
                 ;OPTIMIZER ADDED SUBROUTINE, CALLED 2 TIMES, CODE SIZE REDUCTION:1 WORDS
                 SUBOPT_0xB:
001331 e3e5      	LDI  R30,LOW(_buf)
001332 e0fd      	LDI  R31,HIGH(_buf)
001333 93e0 0db5 	STS  _argv,R30
001335 93f0 0db6 	STS  _argv+1,R31
001337 9508      	RET
                 
                 ;OPTIMIZER ADDED SUBROUTINE, CALLED 12 TIMES, CODE SIZE REDUCTION:52 WORDS
                 SUBOPT_0xC:
001338 e0f0      	LDI  R31,0
001339 0fee      	LSL  R30
00133a 1fff      	ROL  R31
00133b 0fae      	ADD  R26,R30
00133c 1fbf      	ADC  R27,R31
00133d 9508      	RET
                 
                 ;OPTIMIZER ADDED SUBROUTINE, CALLED 5 TIMES, CODE SIZE REDUCTION:13 WORDS
                 SUBOPT_0xD:
00133e 2dea      	MOV  R30,R10
00133f e0f0      	LDI  R31,0
001340 5ceb      	SUBI R30,LOW(-_buf)
001341 4ff2      	SBCI R31,HIGH(-_buf)
001342 9508      	RET
                 
                 ;OPTIMIZER ADDED SUBROUTINE, CALLED 4 TIMES, CODE SIZE REDUCTION:3 WORDS
                 SUBOPT_0xE:
001343 93fa      	ST   -Y,R31
001344 93ea      	ST   -Y,R30
001345 940c 11bf 	JMP  _SetTask
                 
                 ;OPTIMIZER ADDED SUBROUTINE, CALLED 2 TIMES, CODE SIZE REDUCTION:1 WORDS
                 SUBOPT_0xF:
001347 e0e0      	LDI  R30,LOW(0)
001348 93e0 0062 	STS  98,R30
00134a 93e0 0061 	STS  97,R30
00134c 9508      	RET
                 
                 ;OPTIMIZER ADDED SUBROUTINE, CALLED 3 TIMES, CODE SIZE REDUCTION:1 WORDS
                 SUBOPT_0x10:
00134d 91a0 0e51 	LDS  R26,_volt
00134f 91b0 0e52 	LDS  R27,_volt+1
001351 9508      	RET
                 
                 ;OPTIMIZER ADDED SUBROUTINE, CALLED 12 TIMES, CODE SIZE REDUCTION:30 WORDS
                 SUBOPT_0x11:
001352 e0f0      	LDI  R31,0
001353 0fea      	ADD  R30,R26
001354 1ffb      	ADC  R31,R27
001355 9508      	RET
                 
                 ;OPTIMIZER ADDED SUBROUTINE, CALLED 3 TIMES, CODE SIZE REDUCTION:19 WORDS
                 SUBOPT_0x12:
001356 920a      	ST   -Y,R0
001357 921a      	ST   -Y,R1
001358 92fa      	ST   -Y,R15
001359 936a      	ST   -Y,R22
00135a 937a      	ST   -Y,R23
00135b 938a      	ST   -Y,R24
00135c 939a      	ST   -Y,R25
00135d 93aa      	ST   -Y,R26
00135e 93ba      	ST   -Y,R27
00135f 93ea      	ST   -Y,R30
001360 93fa      	ST   -Y,R31
001361 b7ef      	IN   R30,SREG
001362 93ea      	ST   -Y,R30
001363 9508      	RET
                 
                 ;OPTIMIZER ADDED SUBROUTINE, CALLED 2 TIMES, CODE SIZE REDUCTION:8 WORDS
                 SUBOPT_0x13:
                +
001364 e7ef     +LDI R30 , LOW ( 0x7F )
001365 e0f0     +LDI R31 , HIGH ( 0x7F )
001366 e060     +LDI R22 , BYTE3 ( 0x7F )
001367 e070     +LDI R23 , BYTE4 ( 0x7F )
                 	__GETD1N 0x7F
001368 940e 165c 	CALL __PREINC_BITFD
                +
00136a 33ec     +CPI R30 , LOW ( 0x3C )
00136b e0a0     +LDI R26 , HIGH ( 0x3C )
00136c 07fa     +CPC R31 , R26
00136d e0a0     +LDI R26 , BYTE3 ( 0x3C )
00136e 076a     +CPC R22 , R26
00136f e0a0     +LDI R26 , BYTE4 ( 0x3C )
001370 077a     +CPC R23 , R26
                 	__CPD1N 0x3C
001371 9508      	RET
                 
                 ;OPTIMIZER ADDED SUBROUTINE, CALLED 2 TIMES, CODE SIZE REDUCTION:1 WORDS
                 SUBOPT_0x14:
                +
001372 e3ef     +LDI R30 , LOW ( 0x3F )
001373 e0f0     +LDI R31 , HIGH ( 0x3F )
001374 e060     +LDI R22 , BYTE3 ( 0x3F )
001375 e070     +LDI R23 , BYTE4 ( 0x3F )
                 	__GETD1N 0x3F
001376 940e 165c 	CALL __PREINC_BITFD
001378 9508      	RET
                 
                 ;OPTIMIZER ADDED SUBROUTINE, CALLED 3 TIMES, CODE SIZE REDUCTION:7 WORDS
                 SUBOPT_0x15:
001379 91e0 0e5f 	LDS  R30,_t+2
00137b 91f0 0e60 	LDS  R31,_t+3
00137d 940e 159a 	CALL __LSRW4
00137f 73ef      	ANDI R30,LOW(0x3F)
001380 9508      	RET
                 
                 ;OPTIMIZER ADDED SUBROUTINE, CALLED 2 TIMES, CODE SIZE REDUCTION:15 WORDS
                 SUBOPT_0x16:
001381 e5ad      	LDI  R26,LOW(_t)
001382 e0be      	LDI  R27,HIGH(_t)
001383 e18a      	LDI  R24,26
                +
001384 e0ef     +LDI R30 , LOW ( 0xF )
001385 e0f0     +LDI R31 , HIGH ( 0xF )
001386 e060     +LDI R22 , BYTE3 ( 0xF )
001387 e070     +LDI R23 , BYTE4 ( 0xF )
                 	__GETD1N 0xF
001388 940e 166e 	CALL __POSTINC_BITFD
                +
00138a 91e0 0e5f+LDS R30 , _t + ( 2 )
00138c 91f0 0e60+LDS R31 , _t + ( 2 ) + 1
                 	__GETW1MN _t,2
00138e 70ef      	ANDI R30,LOW(0xFC0F)
00138f 7ffc      	ANDI R31,HIGH(0xFC0F)
001390 61e0      	ORI  R30,0x10
                +
001391 93e0 0e5f+STS _t + ( 2 ) , R30
001393 93f0 0e60+STS _t + ( 2 ) + 1 , R31
                 	__PUTW1MN _t,2
001395 9508      	RET
                 
                 ;OPTIMIZER ADDED SUBROUTINE, CALLED 2 TIMES, CODE SIZE REDUCTION:7 WORDS
                 SUBOPT_0x17:
001396 91e0 0e60 	LDS  R30,_t+3
001398 95e2      	SWAP R30
001399 70ef      	ANDI R30,0xF
00139a 95e6      	LSR  R30
00139b 95e6      	LSR  R30
                +
00139c 70e3     +ANDI R30 , LOW ( 0x3 )
00139d 70f0     +ANDI R31 , HIGH ( 0x3 )
00139e 7060     +ANDI R22 , BYTE3 ( 0x3 )
00139f 7070     +ANDI R23 , BYTE4 ( 0x3 )
                 	__ANDD1N 0x3
0013a0 01df      	MOVW R26,R30
0013a1 01cb      	MOVW R24,R22
0013a2 9508      	RET
                 
                 ;OPTIMIZER ADDED SUBROUTINE, CALLED 3 TIMES, CODE SIZE REDUCTION:13 WORDS
                 SUBOPT_0x18:
0013a3 93e0 0e67 	STS  _i2c_Do,R30
0013a5 ede5      	LDI  R30,LOW(213)
0013a6 93e0 0074 	STS  116,R30
                +
0013a8 91e0 0e65+LDS R30 , _ErrorOutFunc + ( 0 )
0013aa 91f0 0e66+LDS R31 , _ErrorOutFunc + ( 0 ) + 1
0013ac 9509     +ICALL
                 	__CALL1MN _ErrorOutFunc,0
0013ad 9508      	RET
                 
                 ;OPTIMIZER ADDED SUBROUTINE, CALLED 2 TIMES, CODE SIZE REDUCTION:2 WORDS
                 SUBOPT_0x19:
0013ae 91e0 0e70 	LDS  R30,_i2c_SlaveAddress
0013b0 93e0 0073 	STS  115,R30
0013b2 ece5      	LDI  R30,LOW(197)
0013b3 93e0 0074 	STS  116,R30
0013b5 9508      	RET
                 
                 ;OPTIMIZER ADDED SUBROUTINE, CALLED 3 TIMES, CODE SIZE REDUCTION:1 WORDS
                 SUBOPT_0x1A:
0013b6 91e0 0e67 	LDS  R30,_i2c_Do
0013b8 70ec      	ANDI R30,LOW(0xC)
0013b9 30e8      	CPI  R30,LOW(0x8)
0013ba 9508      	RET
                 
                 ;OPTIMIZER ADDED SUBROUTINE, CALLED 2 TIMES, CODE SIZE REDUCTION:13 WORDS
                 SUBOPT_0x1B:
0013bb 91e0 0e6e 	LDS  R30,_i2c_index
0013bd e0f0      	LDI  R31,0
0013be 59e5      	SUBI R30,LOW(-_i2c_Buffer)
0013bf 4ff1      	SBCI R31,HIGH(-_i2c_Buffer)
0013c0 81e0      	LD   R30,Z
0013c1 93e0 0073 	STS  115,R30
0013c3 91e0 0e6e 	LDS  R30,_i2c_index
0013c5 5fef      	SUBI R30,-LOW(1)
0013c6 93e0 0e6e 	STS  _i2c_index,R30
0013c8 ece5      	LDI  R30,LOW(197)
0013c9 93e0 0074 	STS  116,R30
0013cb 9508      	RET
                 
                 ;OPTIMIZER ADDED SUBROUTINE, CALLED 2 TIMES, CODE SIZE REDUCTION:11 WORDS
                 SUBOPT_0x1C:
0013cc 91e0 0e73 	LDS  R30,_i2c_PageAddrIndex
0013ce e0f0      	LDI  R31,0
0013cf 58ef      	SUBI R30,LOW(-_i2c_PageAddress)
0013d0 4ff1      	SBCI R31,HIGH(-_i2c_PageAddress)
0013d1 81e0      	LD   R30,Z
0013d2 93e0 0073 	STS  115,R30
0013d4 91e0 0e73 	LDS  R30,_i2c_PageAddrIndex
0013d6 5fef      	SUBI R30,-LOW(1)
0013d7 93e0 0e73 	STS  _i2c_PageAddrIndex,R30
0013d9 ece5      	LDI  R30,LOW(197)
0013da 9508      	RET
                 
                 ;OPTIMIZER ADDED SUBROUTINE, CALLED 3 TIMES, CODE SIZE REDUCTION:9 WORDS
                 SUBOPT_0x1D:
0013db ede5      	LDI  R30,LOW(213)
0013dc 93e0 0074 	STS  116,R30
                +
0013de 91e0 0e61+LDS R30 , _MasterOutFunc + ( 0 )
0013e0 91f0 0e62+LDS R31 , _MasterOutFunc + ( 0 ) + 1
0013e2 9509     +ICALL
                 	__CALL1MN _MasterOutFunc,0
0013e3 9508      	RET
                 
                 ;OPTIMIZER ADDED SUBROUTINE, CALLED 3 TIMES, CODE SIZE REDUCTION:9 WORDS
                 SUBOPT_0x1E:
0013e4 93e0 0e67 	STS  _i2c_Do,R30
0013e6 e0e0      	LDI  R30,LOW(0)
0013e7 93e0 0e6e 	STS  _i2c_index,R30
0013e9 93e0 0e73 	STS  _i2c_PageAddrIndex,R30
0013eb 9508      	RET
                 
                 ;OPTIMIZER ADDED SUBROUTINE, CALLED 2 TIMES, CODE SIZE REDUCTION:1 WORDS
                 SUBOPT_0x1F:
0013ec 91a0 0e6e 	LDS  R26,_i2c_index
0013ee 5faf      	SUBI R26,-LOW(1)
0013ef 91e0 0e6f 	LDS  R30,_i2c_ByteCount
0013f1 17ea      	CP   R30,R26
0013f2 9508      	RET
                 
                 ;OPTIMIZER ADDED SUBROUTINE, CALLED 2 TIMES, CODE SIZE REDUCTION:5 WORDS
                 SUBOPT_0x20:
0013f3 91a0 0e6e 	LDS  R26,_i2c_index
0013f5 e0b0      	LDI  R27,0
0013f6 59a5      	SUBI R26,LOW(-_i2c_Buffer)
0013f7 4fb1      	SBCI R27,HIGH(-_i2c_Buffer)
0013f8 91e0 0073 	LDS  R30,115
0013fa 93ec      	ST   X,R30
0013fb 9508      	RET
                 
                 ;OPTIMIZER ADDED SUBROUTINE, CALLED 3 TIMES, CODE SIZE REDUCTION:3 WORDS
                 SUBOPT_0x21:
0013fc 91e0 0e67 	LDS  R30,_i2c_Do
0013fe 64e0      	ORI  R30,0x40
0013ff 93e0 0e67 	STS  _i2c_Do,R30
001401 9508      	RET
                 
                 ;OPTIMIZER ADDED SUBROUTINE, CALLED 2 TIMES, CODE SIZE REDUCTION:5 WORDS
                 SUBOPT_0x22:
001402 91a0 0e6a 	LDS  R26,_i2c_SlaveIndex
001404 e0b0      	LDI  R27,0
001405 59a8      	SUBI R26,LOW(-_i2c_InBuff)
001406 4fb1      	SBCI R27,HIGH(-_i2c_InBuff)
001407 91e0 0073 	LDS  R30,115
001409 93ec      	ST   X,R30
00140a 9508      	RET
                 
                 ;OPTIMIZER ADDED SUBROUTINE, CALLED 2 TIMES, CODE SIZE REDUCTION:2 WORDS
                 SUBOPT_0x23:
00140b 91e0 0e6a 	LDS  R30,_i2c_SlaveIndex
00140d 5fef      	SUBI R30,-LOW(1)
00140e 93e0 0e6a 	STS  _i2c_SlaveIndex,R30
001410 9508      	RET
                 
                 ;OPTIMIZER ADDED SUBROUTINE, CALLED 2 TIMES, CODE SIZE REDUCTION:3 WORDS
                 SUBOPT_0x24:
001411 e0f0      	LDI  R31,0
001412 59e7      	SUBI R30,LOW(-_i2c_OutBuff)
001413 4ff1      	SBCI R31,HIGH(-_i2c_OutBuff)
001414 81e0      	LD   R30,Z
001415 93e0 0073 	STS  115,R30
001417 9508      	RET
                 
                 ;OPTIMIZER ADDED SUBROUTINE, CALLED 2 TIMES, CODE SIZE REDUCTION:4 WORDS
                 SUBOPT_0x25:
001418 93e0 0e65 	STS  _ErrorOutFunc,R30
00141a 93f0 0e66 	STS  _ErrorOutFunc+1,R31
00141c eae5      	LDI  R30,LOW(165)
00141d 93e0 0074 	STS  116,R30
00141f cfdc      	RJMP SUBOPT_0x21
                 
                 ;OPTIMIZER ADDED SUBROUTINE, CALLED 8 TIMES, CODE SIZE REDUCTION:25 WORDS
                 SUBOPT_0x26:
001420 93fa      	ST   -Y,R31
001421 93ea      	ST   -Y,R30
001422 940e 0737 	CALL _USART_SendStrFl
001424 e0e0      	LDI  R30,LOW(0)
001425 93ea      	ST   -Y,R30
001426 9508      	RET
                 
                 ;OPTIMIZER ADDED SUBROUTINE, CALLED 38 TIMES, CODE SIZE REDUCTION:71 WORDS
                 SUBOPT_0x27:
001427 93fa      	ST   -Y,R31
001428 93ea      	ST   -Y,R30
001429 940c 0727 	JMP  _USART_SendStr
                 
                 ;OPTIMIZER ADDED SUBROUTINE, CALLED 4 TIMES, CODE SIZE REDUCTION:45 WORDS
                 SUBOPT_0x28:
00142b 2fe1      	MOV  R30,R17
00142c 27ff      	CLR  R31
00142d 2766      	CLR  R22
00142e 2777      	CLR  R23
00142f 940e 161b 	CALL __PUTPARD1
001431 01fe      	MOVW R30,R28
001432 9635      	ADIW R30,5
001433 93fa      	ST   -Y,R31
001434 93ea      	ST   -Y,R30
001435 940e 1278 	CALL _ltoa
001437 e0e0      	LDI  R30,LOW(0)
001438 93ea      	ST   -Y,R30
001439 01fe      	MOVW R30,R28
00143a 9632      	ADIW R30,2
00143b cfeb      	RJMP SUBOPT_0x27
                 
                 ;OPTIMIZER ADDED SUBROUTINE, CALLED 3 TIMES, CODE SIZE REDUCTION:35 WORDS
                 SUBOPT_0x29:
00143c 27ee      	CLR  R30
00143d 0fa1      	ADD  R26,R17
00143e 1fbe      	ADC  R27,R30
00143f 91ec      	LD   R30,X
001440 27ff      	CLR  R31
001441 2766      	CLR  R22
001442 2777      	CLR  R23
001443 940e 161b 	CALL __PUTPARD1
001445 01fe      	MOVW R30,R28
001446 9635      	ADIW R30,5
001447 93fa      	ST   -Y,R31
001448 93ea      	ST   -Y,R30
001449 940e 1278 	CALL _ltoa
00144b e0e0      	LDI  R30,LOW(0)
00144c 93ea      	ST   -Y,R30
00144d 01fe      	MOVW R30,R28
00144e 9632      	ADIW R30,2
00144f cfd7      	RJMP SUBOPT_0x27
                 
                 ;OPTIMIZER ADDED SUBROUTINE, CALLED 3 TIMES, CODE SIZE REDUCTION:1 WORDS
                 SUBOPT_0x2A:
001450 e0ac      	LDI  R26,LOW(_RAM_settings)
001451 e0b3      	LDI  R27,HIGH(_RAM_settings)
001452 cee5      	RJMP SUBOPT_0xC
                 
                 ;OPTIMIZER ADDED SUBROUTINE, CALLED 2 TIMES, CODE SIZE REDUCTION:11 WORDS
                 SUBOPT_0x2B:
001453 2766      	CLR  R22
001454 2777      	CLR  R23
001455 940e 161b 	CALL __PUTPARD1
001457 01fe      	MOVW R30,R28
001458 9635      	ADIW R30,5
001459 93fa      	ST   -Y,R31
00145a 93ea      	ST   -Y,R30
00145b 940e 1278 	CALL _ltoa
00145d e0e0      	LDI  R30,LOW(0)
00145e 93ea      	ST   -Y,R30
00145f 01fe      	MOVW R30,R28
001460 9632      	ADIW R30,2
001461 cfc5      	RJMP SUBOPT_0x27
                 
                 ;OPTIMIZER ADDED SUBROUTINE, CALLED 2 TIMES, CODE SIZE REDUCTION:2 WORDS
                 SUBOPT_0x2C:
                +
001462 e0a4     +LDI R26 , LOW ( _EE_settings + ( 4 ) )
001463 e0b0     +LDI R27 , HIGH ( _EE_settings + ( 4 ) )
                 	__POINTW2MN _EE_settings,4
001464 27ee      	CLR  R30
001465 0fa1      	ADD  R26,R17
001466 1fbe      	ADC  R27,R30
001467 940e 168c 	CALL __EEPROMRDB
001469 9508      	RET
                 
                 ;OPTIMIZER ADDED SUBROUTINE, CALLED 3 TIMES, CODE SIZE REDUCTION:27 WORDS
                 SUBOPT_0x2D:
00146a 27ff      	CLR  R31
00146b 2766      	CLR  R22
00146c 2777      	CLR  R23
00146d 940e 161b 	CALL __PUTPARD1
00146f 01fe      	MOVW R30,R28
001470 9635      	ADIW R30,5
001471 93fa      	ST   -Y,R31
001472 93ea      	ST   -Y,R30
001473 940e 1278 	CALL _ltoa
001475 e0e0      	LDI  R30,LOW(0)
001476 93ea      	ST   -Y,R30
001477 01fe      	MOVW R30,R28
001478 9632      	ADIW R30,2
001479 cfad      	RJMP SUBOPT_0x27
                 
                 ;OPTIMIZER ADDED SUBROUTINE, CALLED 2 TIMES, CODE SIZE REDUCTION:2 WORDS
                 SUBOPT_0x2E:
                +
00147a e0a6     +LDI R26 , LOW ( _EE_settings + ( 6 ) )
00147b e0b0     +LDI R27 , HIGH ( _EE_settings + ( 6 ) )
                 	__POINTW2MN _EE_settings,6
00147c 27ee      	CLR  R30
00147d 0fa1      	ADD  R26,R17
00147e 1fbe      	ADC  R27,R30
00147f 940e 168c 	CALL __EEPROMRDB
001481 9508      	RET
                 
                 ;OPTIMIZER ADDED SUBROUTINE, CALLED 2 TIMES, CODE SIZE REDUCTION:2 WORDS
                 SUBOPT_0x2F:
                +
001482 e0aa     +LDI R26 , LOW ( _EE_settings + ( 10 ) )
001483 e0b0     +LDI R27 , HIGH ( _EE_settings + ( 10 ) )
                 	__POINTW2MN _EE_settings,10
001484 27ee      	CLR  R30
001485 0fa1      	ADD  R26,R17
001486 1fbe      	ADC  R27,R30
001487 940e 168c 	CALL __EEPROMRDB
001489 9508      	RET
                 
                 ;OPTIMIZER ADDED SUBROUTINE, CALLED 2 TIMES, CODE SIZE REDUCTION:9 WORDS
                 SUBOPT_0x30:
00148a 940e 161b 	CALL __PUTPARD1
00148c 01fe      	MOVW R30,R28
00148d 9634      	ADIW R30,4
00148e 93fa      	ST   -Y,R31
00148f 93ea      	ST   -Y,R30
001490 940e 1278 	CALL _ltoa
001492 e0e0      	LDI  R30,LOW(0)
001493 93ea      	ST   -Y,R30
001494 01fe      	MOVW R30,R28
001495 9631      	ADIW R30,1
001496 cf90      	RJMP SUBOPT_0x27
                 
                 ;OPTIMIZER ADDED SUBROUTINE, CALLED 2 TIMES, CODE SIZE REDUCTION:1 WORDS
                 SUBOPT_0x31:
001497 eae1      	LDI  R30,LOW(_Task_LedOff)
001498 e0fd      	LDI  R31,HIGH(_Task_LedOff)
001499 93fa      	ST   -Y,R31
00149a 93ea      	ST   -Y,R30
00149b e3e2      	LDI  R30,LOW(50)
00149c e0f0      	LDI  R31,HIGH(50)
00149d 9508      	RET
                 
                 ;OPTIMIZER ADDED SUBROUTINE, CALLED 8 TIMES, CODE SIZE REDUCTION:11 WORDS
                 SUBOPT_0x32:
00149e 93fa      	ST   -Y,R31
00149f 93ea      	ST   -Y,R30
0014a0 940c 11c9 	JMP  _SetTimerTask
                 
                 ;OPTIMIZER ADDED SUBROUTINE, CALLED 2 TIMES, CODE SIZE REDUCTION:1 WORDS
                 SUBOPT_0x33:
0014a2 ebe1      	LDI  R30,LOW(_Task_pars_cmd)
0014a3 e0fd      	LDI  R31,HIGH(_Task_pars_cmd)
0014a4 93fa      	ST   -Y,R31
0014a5 93ea      	ST   -Y,R30
0014a6 e1e9      	LDI  R30,LOW(25)
0014a7 e0f0      	LDI  R31,HIGH(25)
0014a8 9508      	RET
                 
                 ;OPTIMIZER ADDED SUBROUTINE, CALLED 2 TIMES, CODE SIZE REDUCTION:3 WORDS
                 SUBOPT_0x34:
0014a9 91e0 0e67 	LDS  R30,_i2c_Do
0014ab 7bef      	ANDI R30,0xBF
0014ac 93e0 0e67 	STS  _i2c_Do,R30
0014ae 71e1      	ANDI R30,LOW(0x11)
0014af 9508      	RET
                 
                 ;OPTIMIZER ADDED SUBROUTINE, CALLED 2 TIMES, CODE SIZE REDUCTION:1 WORDS
                 SUBOPT_0x35:
0014b0 93fa      	ST   -Y,R31
0014b1 93ea      	ST   -Y,R30
0014b2 e1e4      	LDI  R30,LOW(20)
0014b3 e0f0      	LDI  R31,HIGH(20)
0014b4 cfe9      	RJMP SUBOPT_0x32
                 
                 ;OPTIMIZER ADDED SUBROUTINE, CALLED 2 TIMES, CODE SIZE REDUCTION:4 WORDS
                 SUBOPT_0x36:
0014b5 e0ac      	LDI  R26,LOW(_RAM_settings)
0014b6 e0b3      	LDI  R27,HIGH(_RAM_settings)
0014b7 e0f0      	LDI  R31,0
0014b8 0fee      	LSL  R30
0014b9 1fff      	ROL  R31
0014ba 0fea      	ADD  R30,R26
0014bb 1ffb      	ADC  R31,R27
0014bc 9508      	RET
                 
                 ;OPTIMIZER ADDED SUBROUTINE, CALLED 3 TIMES, CODE SIZE REDUCTION:1 WORDS
                 SUBOPT_0x37:
0014bd 93fa      	ST   -Y,R31
0014be 93ea      	ST   -Y,R30
0014bf 940c 0654 	JMP  _USART_Init
                 
                 ;OPTIMIZER ADDED SUBROUTINE, CALLED 8 TIMES, CODE SIZE REDUCTION:25 WORDS
                 SUBOPT_0x38:
0014c1 89a8      	LDD  R26,Y+16
0014c2 89b9      	LDD  R27,Y+16+1
0014c3 940e 160d 	CALL __GETW1P
0014c5 93fa      	ST   -Y,R31
0014c6 93ea      	ST   -Y,R30
0014c7 9508      	RET
                 
                 ;OPTIMIZER ADDED SUBROUTINE, CALLED 18 TIMES, CODE SIZE REDUCTION:48 WORDS
                 SUBOPT_0x39:
0014c8 93fa      	ST   -Y,R31
0014c9 93ea      	ST   -Y,R30
0014ca 940e 1266 	CALL _strcmpf
0014cc 30e0      	CPI  R30,0
0014cd 9508      	RET
                 
                 ;OPTIMIZER ADDED SUBROUTINE, CALLED 5 TIMES, CODE SIZE REDUCTION:13 WORDS
                 SUBOPT_0x3A:
0014ce 89e8      	LDD  R30,Y+16
0014cf 89f9      	LDD  R31,Y+16+1
0014d0 81a2      	LDD  R26,Z+2
0014d1 81b3      	LDD  R27,Z+3
0014d2 93ba      	ST   -Y,R27
0014d3 93aa      	ST   -Y,R26
0014d4 9508      	RET
                 
                 ;OPTIMIZER ADDED SUBROUTINE, CALLED 5 TIMES, CODE SIZE REDUCTION:13 WORDS
                 SUBOPT_0x3B:
0014d5 89e8      	LDD  R30,Y+16
0014d6 89f9      	LDD  R31,Y+16+1
0014d7 81a4      	LDD  R26,Z+4
0014d8 81b5      	LDD  R27,Z+5
0014d9 93ba      	ST   -Y,R27
0014da 93aa      	ST   -Y,R26
0014db 9508      	RET
                 
                 ;OPTIMIZER ADDED SUBROUTINE, CALLED 2 TIMES, CODE SIZE REDUCTION:7 WORDS
                 SUBOPT_0x3C:
0014dc 940e 08b4 	CALL _PARS_StrToUint
0014de 2766      	CLR  R22
0014df 2777      	CLR  R23
                +
0014e0 87ec     +STD Y + 12 , R30
0014e1 87fd     +STD Y + 12 + 1 , R31
0014e2 876e     +STD Y + 12 + 2 , R22
0014e3 877f     +STD Y + 12 + 3 , R23
                 	__PUTD1S 12
                +
0014e4 85ac     +LDD R26 , Y + 12
0014e5 85bd     +LDD R27 , Y + 12 + 1
0014e6 858e     +LDD R24 , Y + 12 + 2
0014e7 859f     +LDD R25 , Y + 12 + 3
                 	__GETD2S 12
0014e8 9508      	RET
                 
                 ;OPTIMIZER ADDED SUBROUTINE, CALLED 5 TIMES, CODE SIZE REDUCTION:17 WORDS
                 SUBOPT_0x3D:
                +
0014e9 30a3     +CPI R26 , LOW ( 0x3 )
0014ea e0e0     +LDI R30 , HIGH ( 0x3 )
0014eb 07be     +CPC R27 , R30
0014ec e0e0     +LDI R30 , BYTE3 ( 0x3 )
0014ed 078e     +CPC R24 , R30
0014ee e0e0     +LDI R30 , BYTE4 ( 0x3 )
0014ef 079e     +CPC R25 , R30
                 	__CPD2N 0x3
0014f0 9508      	RET
                 
                 ;OPTIMIZER ADDED SUBROUTINE, CALLED 2 TIMES, CODE SIZE REDUCTION:5 WORDS
                 SUBOPT_0x3E:
0014f1 89e8      	LDD  R30,Y+16
0014f2 89f9      	LDD  R31,Y+16+1
0014f3 81a6      	LDD  R26,Z+6
0014f4 81b7      	LDD  R27,Z+7
0014f5 93ba      	ST   -Y,R27
0014f6 93aa      	ST   -Y,R26
0014f7 e9ec      	LDI  R30,LOW(_Mode*2)
0014f8 e0f0      	LDI  R31,HIGH(_Mode*2)
0014f9 cfce      	RJMP SUBOPT_0x39
                 
                 ;OPTIMIZER ADDED SUBROUTINE, CALLED 2 TIMES, CODE SIZE REDUCTION:21 WORDS
                 SUBOPT_0x3F:
0014fa 89e8      	LDD  R30,Y+16
0014fb 89f9      	LDD  R31,Y+16+1
0014fc 85a0      	LDD  R26,Z+8
0014fd 85b1      	LDD  R27,Z+9
0014fe 93ba      	ST   -Y,R27
0014ff 93aa      	ST   -Y,R26
001500 940e 089a 	CALL _PARS_StrToUchar
001502 27ff      	CLR  R31
001503 2766      	CLR  R22
001504 2777      	CLR  R23
                +
001505 87ec     +STD Y + 12 , R30
001506 87fd     +STD Y + 12 + 1 , R31
001507 876e     +STD Y + 12 + 2 , R22
001508 877f     +STD Y + 12 + 3 , R23
                 	__PUTD1S 12
                +
001509 85ac     +LDD R26 , Y + 12
00150a 85bd     +LDD R27 , Y + 12 + 1
00150b 858e     +LDD R24 , Y + 12 + 2
00150c 859f     +LDD R25 , Y + 12 + 3
                 	__GETD2S 12
                +
00150d 30a1     +CPI R26 , LOW ( 0x1 )
00150e e0e0     +LDI R30 , HIGH ( 0x1 )
00150f 07be     +CPC R27 , R30
001510 e0e0     +LDI R30 , BYTE3 ( 0x1 )
001511 078e     +CPC R24 , R30
001512 e0e0     +LDI R30 , BYTE4 ( 0x1 )
001513 079e     +CPC R25 , R30
                 	__CPD2N 0x1
001514 9508      	RET
                 
                 ;OPTIMIZER ADDED SUBROUTINE, CALLED 9 TIMES, CODE SIZE REDUCTION:13 WORDS
                 SUBOPT_0x40:
                +
001515 85ac     +LDD R26 , Y + 12
001516 85bd     +LDD R27 , Y + 12 + 1
001517 858e     +LDD R24 , Y + 12 + 2
001518 859f     +LDD R25 , Y + 12 + 3
                 	__GETD2S 12
001519 9508      	RET
                 
                 ;OPTIMIZER ADDED SUBROUTINE, CALLED 3 TIMES, CODE SIZE REDUCTION:5 WORDS
                 SUBOPT_0x41:
00151a 2fe3      	MOV  R30,R19
00151b 5fed      	SUBI R30,-LOW(3)
00151c 89a8      	LDD  R26,Y+16
00151d 89b9      	LDD  R27,Y+16+1
00151e ce19      	RJMP SUBOPT_0xC
                 
                 ;OPTIMIZER ADDED SUBROUTINE, CALLED 6 TIMES, CODE SIZE REDUCTION:7 WORDS
                 SUBOPT_0x42:
00151f 940e 160d 	CALL __GETW1P
001521 93fa      	ST   -Y,R31
001522 93ea      	ST   -Y,R30
001523 9508      	RET
                 
                 ;OPTIMIZER ADDED SUBROUTINE, CALLED 3 TIMES, CODE SIZE REDUCTION:5 WORDS
                 SUBOPT_0x43:
001524 2fe3      	MOV  R30,R19
001525 5fec      	SUBI R30,-LOW(4)
001526 89a8      	LDD  R26,Y+16
001527 89b9      	LDD  R27,Y+16+1
001528 ce0f      	RJMP SUBOPT_0xC
                 
                 ;OPTIMIZER ADDED SUBROUTINE, CALLED 2 TIMES, CODE SIZE REDUCTION:1 WORDS
                 SUBOPT_0x44:
                +
001529 e1a0     +LDI R26 , LOW ( _RAM_settings + ( 4 ) )
00152a e0b3     +LDI R27 , HIGH ( _RAM_settings + ( 4 ) )
                 	__POINTW2MN _RAM_settings,4
00152b 27ee      	CLR  R30
00152c 0fa2      	ADD  R26,R18
00152d 1fbe      	ADC  R27,R30
00152e 91ec      	LD   R30,X
00152f 9508      	RET
                 
                 ;OPTIMIZER ADDED SUBROUTINE, CALLED 6 TIMES, CODE SIZE REDUCTION:42 WORDS
                 SUBOPT_0x45:
001530 940e 089a 	CALL _PARS_StrToUchar
001532 27ff      	CLR  R31
001533 2766      	CLR  R22
001534 2777      	CLR  R23
                +
001535 87ec     +STD Y + 12 , R30
001536 87fd     +STD Y + 12 + 1 , R31
001537 876e     +STD Y + 12 + 2 , R22
001538 877f     +STD Y + 12 + 3 , R23
                 	__PUTD1S 12
001539 cfdb      	RJMP SUBOPT_0x40
                 
                 ;OPTIMIZER ADDED SUBROUTINE, CALLED 2 TIMES, CODE SIZE REDUCTION:1 WORDS
                 SUBOPT_0x46:
                +
00153a e1a2     +LDI R26 , LOW ( _RAM_settings + ( 6 ) )
00153b e0b3     +LDI R27 , HIGH ( _RAM_settings + ( 6 ) )
                 	__POINTW2MN _RAM_settings,6
00153c 27ee      	CLR  R30
00153d 0fa2      	ADD  R26,R18
00153e 1fbe      	ADC  R27,R30
00153f 91ec      	LD   R30,X
001540 9508      	RET
                 
                 ;OPTIMIZER ADDED SUBROUTINE, CALLED 2 TIMES, CODE SIZE REDUCTION:1 WORDS
                 SUBOPT_0x47:
                +
001541 e1a6     +LDI R26 , LOW ( _RAM_settings + ( 10 ) )
001542 e0b3     +LDI R27 , HIGH ( _RAM_settings + ( 10 ) )
                 	__POINTW2MN _RAM_settings,10
001543 27ee      	CLR  R30
001544 0fa2      	ADD  R26,R18
001545 1fbe      	ADC  R27,R30
001546 91ec      	LD   R30,X
001547 9508      	RET
                 
                 ;OPTIMIZER ADDED SUBROUTINE, CALLED 2 TIMES, CODE SIZE REDUCTION:1 WORDS
                 SUBOPT_0x48:
001548 89e9      	LDD  R30,Y+17
001549 89fa      	LDD  R31,Y+17+1
00154a 81a6      	LDD  R26,Z+6
00154b 81b7      	LDD  R27,Z+7
00154c 93ba      	ST   -Y,R27
00154d 93aa      	ST   -Y,R26
00154e 9508      	RET
                 
                 ;OPTIMIZER ADDED SUBROUTINE, CALLED 14 TIMES, CODE SIZE REDUCTION:75 WORDS
                 SUBOPT_0x49:
00154f 2fe1      	MOV  R30,R17
001550 e7a5      	LDI  R26,LOW(_MainTimer_G001)
001551 e0be      	LDI  R27,HIGH(_MainTimer_G001)
001552 e0f0      	LDI  R31,0
001553 940e 1595 	CALL __LSLW2
001555 9508      	RET
                 
                 ;OPTIMIZER ADDED SUBROUTINE, CALLED 2 TIMES, CODE SIZE REDUCTION:1 WORDS
                 SUBOPT_0x4A:
001556 0fae      	ADD  R26,R30
001557 1fbf      	ADC  R27,R31
001558 ebee      	LDI  R30,LOW(_Idle)
001559 e1f1      	LDI  R31,HIGH(_Idle)
00155a 93ed      	ST   X+,R30
00155b 93fc      	ST   X,R31
00155c 9508      	RET
                 
                 ;OPTIMIZER ADDED SUBROUTINE, CALLED 4 TIMES, CODE SIZE REDUCTION:3 WORDS
                 SUBOPT_0x4B:
00155d 0fae      	ADD  R26,R30
00155e 1fbf      	ADC  R27,R31
00155f 940e 160d 	CALL __GETW1P
001561 9508      	RET
                 
                 ;OPTIMIZER ADDED SUBROUTINE, CALLED 2 TIMES, CODE SIZE REDUCTION:3 WORDS
                 SUBOPT_0x4C:
001562 0fea      	ADD  R30,R26
001563 1ffb      	ADC  R31,R27
001564 9632      	ADIW R30,2
001565 81aa      	LDD  R26,Y+2
001566 81bb      	LDD  R27,Y+2+1
001567 83a0      	STD  Z+0,R26
001568 83b1      	STD  Z+1,R27
001569 3000      	CPI  R16,0
00156a 9508      	RET
                 
                 ;OPTIMIZER ADDED SUBROUTINE, CALLED 3 TIMES, CODE SIZE REDUCTION:3 WORDS
                 SUBOPT_0x4D:
00156b 01df      	MOVW R26,R30
00156c ebee      	LDI  R30,LOW(_Idle)
00156d e1f1      	LDI  R31,HIGH(_Idle)
00156e 17ea      	CP   R30,R26
00156f 07fb      	CPC  R31,R27
001570 9508      	RET
                 
                 ;OPTIMIZER ADDED SUBROUTINE, CALLED 2 TIMES, CODE SIZE REDUCTION:1 WORDS
                 SUBOPT_0x4E:
001571 81ae      	LDD  R26,Y+6
001572 81bf      	LDD  R27,Y+6+1
001573 9611      	ADIW R26,1
001574 83ae      	STD  Y+6,R26
001575 83bf      	STD  Y+6+1,R27
001576 9711      	SBIW R26,1
001577 9508      	RET
                 
                 ;OPTIMIZER ADDED SUBROUTINE, CALLED 2 TIMES, CODE SIZE REDUCTION:3 WORDS
                 SUBOPT_0x4F:
                +
001578 81ea     +LDD R30 , Y + 2
001579 81fb     +LDD R31 , Y + 2 + 1
00157a 816c     +LDD R22 , Y + 2 + 2
00157b 817d     +LDD R23 , Y + 2 + 3
                 	__GETD1S 2
                +
00157c 85a8     +LDD R26 , Y + 8
00157d 85b9     +LDD R27 , Y + 8 + 1
00157e 858a     +LDD R24 , Y + 8 + 2
00157f 859b     +LDD R25 , Y + 8 + 3
                 	__GETD2S 8
001580 9508      	RET
                 
                 
                 	.CSEG
                 _delay_ms:
001581 91e9      	ld   r30,y+
001582 91f9      	ld   r31,y+
001583 9630      	adiw r30,0
001584 f039      	breq __delay_ms1
                 __delay_ms0:
                +
001585 ea80     +LDI R24 , LOW ( 0xFA0 )
001586 e09f     +LDI R25 , HIGH ( 0xFA0 )
                +__DELAY_USW_LOOP :
001587 9701     +SBIW R24 , 1
001588 f7f1     +BRNE __DELAY_USW_LOOP
                 	__DELAY_USW 0xFA0
001589 95a8      	wdr
00158a 9731      	sbiw r30,1
00158b f7c9      	brne __delay_ms0
                 __delay_ms1:
00158c 9508      	ret
                 
                 	.equ __w1_port=0x1B
                 	.equ __w1_bit=0x02
                 
                 __ANEGD1:
00158d 95f0      	COM  R31
00158e 9560      	COM  R22
00158f 9570      	COM  R23
001590 95e1      	NEG  R30
001591 4fff      	SBCI R31,-1
001592 4f6f      	SBCI R22,-1
001593 4f7f      	SBCI R23,-1
001594 9508      	RET
                 
                 __LSLW2:
001595 0fee      	LSL  R30
001596 1fff      	ROL  R31
001597 0fee      	LSL  R30
001598 1fff      	ROL  R31
001599 9508      	RET
                 
                 __LSRW4:
00159a 95f6      	LSR  R31
00159b 95e7      	ROR  R30
                 __LSRW3:
00159c 95f6      	LSR  R31
00159d 95e7      	ROR  R30
                 __LSRW2:
00159e 95f6      	LSR  R31
00159f 95e7      	ROR  R30
0015a0 95f6      	LSR  R31
0015a1 95e7      	ROR  R30
0015a2 9508      	RET
                 
                 __MULW12U:
0015a3 9ffa      	MUL  R31,R26
0015a4 2df0      	MOV  R31,R0
0015a5 9feb      	MUL  R30,R27
0015a6 0df0      	ADD  R31,R0
0015a7 9fea      	MUL  R30,R26
0015a8 2de0      	MOV  R30,R0
0015a9 0df1      	ADD  R31,R1
0015aa 9508      	RET
                 
                 __MULD12U:
0015ab 9f7a      	MUL  R23,R26
0015ac 2d70      	MOV  R23,R0
0015ad 9f6b      	MUL  R22,R27
0015ae 0d70      	ADD  R23,R0
0015af 9ff8      	MUL  R31,R24
0015b0 0d70      	ADD  R23,R0
0015b1 9fe9      	MUL  R30,R25
0015b2 0d70      	ADD  R23,R0
0015b3 9f6a      	MUL  R22,R26
0015b4 2d60      	MOV  R22,R0
0015b5 0d71      	ADD  R23,R1
0015b6 9ffb      	MUL  R31,R27
0015b7 0d60      	ADD  R22,R0
0015b8 1d71      	ADC  R23,R1
0015b9 9fe8      	MUL  R30,R24
0015ba 0d60      	ADD  R22,R0
0015bb 1d71      	ADC  R23,R1
0015bc 2788      	CLR  R24
0015bd 9ffa      	MUL  R31,R26
0015be 2df0      	MOV  R31,R0
0015bf 0d61      	ADD  R22,R1
0015c0 1f78      	ADC  R23,R24
0015c1 9feb      	MUL  R30,R27
0015c2 0df0      	ADD  R31,R0
0015c3 1d61      	ADC  R22,R1
0015c4 1f78      	ADC  R23,R24
0015c5 9fea      	MUL  R30,R26
0015c6 2de0      	MOV  R30,R0
0015c7 0df1      	ADD  R31,R1
0015c8 1f68      	ADC  R22,R24
0015c9 1f78      	ADC  R23,R24
0015ca 9508      	RET
                 
                 __MULB1W2U:
0015cb 2f6e      	MOV  R22,R30
0015cc 9f6a      	MUL  R22,R26
0015cd 01f0      	MOVW R30,R0
0015ce 9f6b      	MUL  R22,R27
0015cf 0df0      	ADD  R31,R0
0015d0 9508      	RET
                 
                 __DIVW21U:
0015d1 2400      	CLR  R0
0015d2 2411      	CLR  R1
0015d3 e190      	LDI  R25,16
                 __DIVW21U1:
0015d4 0faa      	LSL  R26
0015d5 1fbb      	ROL  R27
0015d6 1c00      	ROL  R0
0015d7 1c11      	ROL  R1
0015d8 1a0e      	SUB  R0,R30
0015d9 0a1f      	SBC  R1,R31
0015da f418      	BRCC __DIVW21U2
0015db 0e0e      	ADD  R0,R30
0015dc 1e1f      	ADC  R1,R31
0015dd c001      	RJMP __DIVW21U3
                 __DIVW21U2:
0015de 60a1      	SBR  R26,1
                 __DIVW21U3:
0015df 959a      	DEC  R25
0015e0 f799      	BRNE __DIVW21U1
0015e1 01fd      	MOVW R30,R26
0015e2 01d0      	MOVW R26,R0
0015e3 9508      	RET
                 
                 __DIVD21U:
0015e4 933f      	PUSH R19
0015e5 934f      	PUSH R20
0015e6 935f      	PUSH R21
0015e7 2400      	CLR  R0
0015e8 2411      	CLR  R1
0015e9 2744      	CLR  R20
0015ea 2755      	CLR  R21
0015eb e230      	LDI  R19,32
                 __DIVD21U1:
0015ec 0faa      	LSL  R26
0015ed 1fbb      	ROL  R27
0015ee 1f88      	ROL  R24
0015ef 1f99      	ROL  R25
0015f0 1c00      	ROL  R0
0015f1 1c11      	ROL  R1
0015f2 1f44      	ROL  R20
0015f3 1f55      	ROL  R21
0015f4 1a0e      	SUB  R0,R30
0015f5 0a1f      	SBC  R1,R31
0015f6 0b46      	SBC  R20,R22
0015f7 0b57      	SBC  R21,R23
0015f8 f428      	BRCC __DIVD21U2
0015f9 0e0e      	ADD  R0,R30
0015fa 1e1f      	ADC  R1,R31
0015fb 1f46      	ADC  R20,R22
0015fc 1f57      	ADC  R21,R23
0015fd c001      	RJMP __DIVD21U3
                 __DIVD21U2:
0015fe 60a1      	SBR  R26,1
                 __DIVD21U3:
0015ff 953a      	DEC  R19
001600 f759      	BRNE __DIVD21U1
001601 01fd      	MOVW R30,R26
001602 01bc      	MOVW R22,R24
001603 01d0      	MOVW R26,R0
001604 01ca      	MOVW R24,R20
001605 915f      	POP  R21
001606 914f      	POP  R20
001607 913f      	POP  R19
001608 9508      	RET
                 
                 __MODD21U:
001609 dfda      	RCALL __DIVD21U
00160a 01fd      	MOVW R30,R26
00160b 01bc      	MOVW R22,R24
00160c 9508      	RET
                 
                 __GETW1P:
00160d 91ed      	LD   R30,X+
00160e 91fc      	LD   R31,X
00160f 9711      	SBIW R26,1
001610 9508      	RET
                 
                 __GETD1P_INC:
001611 91ed      	LD   R30,X+
001612 91fd      	LD   R31,X+
001613 916d      	LD   R22,X+
001614 917d      	LD   R23,X+
001615 9508      	RET
                 
                 __PUTDP1_DEC:
001616 937e      	ST   -X,R23
001617 936e      	ST   -X,R22
001618 93fe      	ST   -X,R31
001619 93ee      	ST   -X,R30
00161a 9508      	RET
                 
                 __PUTPARD1:
00161b 937a      	ST   -Y,R23
00161c 936a      	ST   -Y,R22
00161d 93fa      	ST   -Y,R31
00161e 93ea      	ST   -Y,R30
00161f 9508      	RET
                 
                 __GET_BITFD:
001620 2e08      	MOV  R0,R24
001621 018f      	MOVW R16,R30
001622 019b      	MOVW R18,R22
001623 91ed      	LD   R30,X+
001624 91fd      	LD   R31,X+
001625 916d      	LD   R22,X+
001626 917c      	LD   R23,X
001627 2c10      	MOV  R1,R0
001628 2011      	TST  R1
001629 f031      	BREQ __GET_BITFD1
                 __GET_BITFD0:
00162a 9576      	LSR  R23
00162b 9567      	ROR  R22
00162c 95f7      	ROR  R31
00162d 95e7      	ROR  R30
00162e 941a      	DEC  R1
00162f f7d1      	BRNE __GET_BITFD0
                 __GET_BITFD1:
001630 23e0      	AND  R30,R16
001631 23f1      	AND  R31,R17
001632 2362      	AND  R22,R18
001633 2373      	AND  R23,R19
001634 9508      	RET
                 
                 __PUT_BITFD:
001635 23e0      	AND  R30,R16
001636 23f1      	AND  R31,R17
001637 2362      	AND  R22,R18
001638 2373      	AND  R23,R19
001639 01af      	MOVW R20,R30
00163a 01cb      	MOVW R24,R22
00163b 2000      	TST  R0
00163c f051      	BREQ __PUT_BITFD1
                 __PUT_BITFD0:
00163d 0f00      	LSL  R16
00163e 1f11      	ROL  R17
00163f 1f22      	ROL  R18
001640 1f33      	ROL  R19
001641 0f44      	LSL  R20
001642 1f55      	ROL  R21
001643 1f88      	ROL  R24
001644 1f99      	ROL  R25
001645 940a      	DEC  R0
001646 f7b1      	BRNE __PUT_BITFD0
                 __PUT_BITFD1:
001647 9500      	COM  R16
001648 9510      	COM  R17
001649 9520      	COM  R18
00164a 9530      	COM  R19
00164b 901c      	LD   R1,X
00164c 900e      	LD   R0,-X
00164d 2202      	AND  R0,R18
00164e 2213      	AND  R1,R19
00164f 913e      	LD   R19,-X
001650 912e      	LD   R18,-X
001651 2320      	AND  R18,R16
001652 2331      	AND  R19,R17
001653 2b24      	OR   R18,R20
001654 2b35      	OR   R19,R21
001655 2a08      	OR   R0,R24
001656 2a19      	OR   R1,R25
001657 932d      	ST   X+,R18
001658 933d      	ST   X+,R19
001659 920d      	ST   X+,R0
00165a 921c      	ST   X,R1
00165b 9508      	RET
                 
                 __PREINC_BITFD:
00165c 930f      	PUSH R16
00165d 931f      	PUSH R17
00165e 932f      	PUSH R18
00165f 933f      	PUSH R19
001660 934f      	PUSH R20
001661 935f      	PUSH R21
001662 dfbd      	RCALL __GET_BITFD
001663 9631      	ADIW R30,1
001664 1d61      	ADC  R22,R1
001665 1d71      	ADC  R23,R1
001666 dfce      	RCALL __PUT_BITFD
001667 915f      	POP  R21
001668 914f      	POP  R20
001669 913f      	POP  R19
00166a 912f      	POP  R18
00166b 911f      	POP  R17
00166c 910f      	POP  R16
00166d 9508      	RET
                 
                 __POSTINC_BITFD:
00166e 930f      	PUSH R16
00166f 931f      	PUSH R17
001670 932f      	PUSH R18
001671 933f      	PUSH R19
001672 934f      	PUSH R20
001673 935f      	PUSH R21
001674 dfab      	RCALL __GET_BITFD
001675 93ef      	PUSH R30
001676 93ff      	PUSH R31
001677 936f      	PUSH R22
001678 937f      	PUSH R23
001679 9631      	ADIW R30,1
00167a 1d61      	ADC  R22,R1
00167b 1d71      	ADC  R23,R1
00167c dfb8      	RCALL __PUT_BITFD
00167d 917f      	POP  R23
00167e 916f      	POP  R22
00167f 91ff      	POP  R31
001680 91ef      	POP  R30
001681 915f      	POP  R21
001682 914f      	POP  R20
001683 913f      	POP  R19
001684 912f      	POP  R18
001685 911f      	POP  R17
001686 910f      	POP  R16
001687 9508      	RET
                 
                 __EEPROMRDW:
001688 9611      	ADIW R26,1
001689 d002      	RCALL __EEPROMRDB
00168a 2ffe      	MOV  R31,R30
00168b 9711      	SBIW R26,1
                 
                 __EEPROMRDB:
00168c 99e1      	SBIC EECR,EEWE
00168d cffe      	RJMP __EEPROMRDB
00168e 93ff      	PUSH R31
00168f b7ff      	IN   R31,SREG
001690 94f8      	CLI
001691 bbae      	OUT  EEARL,R26
001692 bbbf      	OUT  EEARH,R27
001693 9ae0      	SBI  EECR,EERE
001694 b3ed      	IN   R30,EEDR
001695 bfff      	OUT  SREG,R31
001696 91ff      	POP  R31
001697 9508      	RET
                 
                 __EEPROMWRW:
001698 d007      	RCALL __EEPROMWRB
001699 9611      	ADIW R26,1
00169a 93ef      	PUSH R30
00169b 2fef      	MOV  R30,R31
00169c d003      	RCALL __EEPROMWRB
00169d 91ef      	POP  R30
00169e 9711      	SBIW R26,1
00169f 9508      	RET
                 
                 __EEPROMWRB:
0016a0 9be1      	SBIS EECR,EEWE
0016a1 c002      	RJMP __EEPROMWRB1
0016a2 95a8      	WDR
0016a3 cffc      	RJMP __EEPROMWRB
                 __EEPROMWRB1:
0016a4 b79f      	IN   R25,SREG
0016a5 94f8      	CLI
0016a6 bbae      	OUT  EEARL,R26
0016a7 bbbf      	OUT  EEARH,R27
0016a8 9ae0      	SBI  EECR,EERE
0016a9 b38d      	IN   R24,EEDR
0016aa 17e8      	CP   R30,R24
0016ab f019      	BREQ __EEPROMWRB0
0016ac bbed      	OUT  EEDR,R30
0016ad 9ae2      	SBI  EECR,EEMWE
0016ae 9ae1      	SBI  EECR,EEWE
                 __EEPROMWRB0:
0016af bf9f      	OUT  SREG,R25
0016b0 9508      	RET
                 
                 __CPD10:
0016b1 9730      	SBIW R30,0
0016b2 4060      	SBCI R22,0
0016b3 4070      	SBCI R23,0
0016b4 9508      	RET
                 
                 __CPW02:
0016b5 2400      	CLR  R0
0016b6 160a      	CP   R0,R26
0016b7 060b      	CPC  R0,R27
0016b8 9508      	RET
                 
                 __CPD20:
0016b9 9710      	SBIW R26,0
0016ba 4080      	SBCI R24,0
0016bb 4090      	SBCI R25,0
0016bc 9508      	RET
                 
                 __CPD02:
0016bd 2400      	CLR  R0
0016be 160a      	CP   R0,R26
0016bf 060b      	CPC  R0,R27
0016c0 0608      	CPC  R0,R24
0016c1 0609      	CPC  R0,R25
0016c2 9508      	RET
                 
                 __SAVELOCR6:
0016c3 935a      	ST   -Y,R21
                 __SAVELOCR5:
0016c4 934a      	ST   -Y,R20
                 __SAVELOCR4:
0016c5 933a      	ST   -Y,R19
                 __SAVELOCR3:
0016c6 932a      	ST   -Y,R18
                 __SAVELOCR2:
0016c7 931a      	ST   -Y,R17
0016c8 930a      	ST   -Y,R16
0016c9 9508      	RET
                 
                 __LOADLOCR6:
0016ca 815d      	LDD  R21,Y+5
                 __LOADLOCR5:
0016cb 814c      	LDD  R20,Y+4
                 __LOADLOCR4:
0016cc 813b      	LDD  R19,Y+3
                 __LOADLOCR3:
0016cd 812a      	LDD  R18,Y+2
                 __LOADLOCR2:
0016ce 8119      	LDD  R17,Y+1
0016cf 8108      	LD   R16,Y
0016d0 9508      	RET
                 
                 ;END OF CODE MARKER
                 __END_OF_CODE:


RESOURCE USE INFORMATION
------------------------

Notice:
The register and instruction counts are symbol table hit counts,
and hence implicitly used resources are not counted, eg, the
'lpm' instruction without operands implicitly uses r0 and z,
none of which are counted.

x,y,z are separate entities in the symbol table and are
counted separately from r26..r31 here.

.dseg memory usage only counts static data declared with .byte

ATmega128 register use summary:
r0 :  77 r1 :  35 r2 :   2 r3 :   0 r4 :   1 r5 :   1 r6 :   2 r7 :   1 
r8 :   0 r9 :   0 r10:   6 r11:   9 r12:   0 r13:   6 r14:   0 r15:   3 
r16:  95 r17: 150 r18:  49 r19:  31 r20:  22 r21:  21 r22:  82 r23:  73 
r24:  56 r25:  34 r26: 341 r27: 182 r28:  30 r29:   1 r30:1309 r31: 375 
x  :  76 y  : 480 z  :  47 
Registers used: 30 out of 35 (85.7%)

ATmega128 instruction use summary:
.lds  :   0 .lds.l:   0 .sts  :   0 .sts.l:   0 adc   :  41 add   :  42 
adiw  :  38 and   :  13 andi  :  53 asr   :   0 bclr  :   0 bld   :   0 
brbc  :   0 brbs  :   0 brcc  :   3 brcs  :   0 break :   0 breq  :  57 
brge  :   2 brhc  :   0 brhs  :   0 brid  :   0 brie  :   0 brlo  :  11 
brlt  :   0 brmi  :   0 brne  : 100 brpl  :   1 brsh  :  32 brtc  :   0 
brts  :   0 brvc  :   0 brvs  :   0 bset  :   0 bst   :   0 call  : 385 
cbi   :  11 cbr   :   0 clc   :   0 clh   :   0 cli   :   9 cln   :   0 
clr   :  49 cls   :   0 clt   :   0 clv   :   0 clz   :   0 com   :   7 
cp    :  14 cpc   :  57 cpi   : 121 cpse  :   0 dec   :   5 des   :   0 
elpm  :   0 eor   :   1 fmul  :   0 fmuls :   0 fmulsu:   0 icall :   5 
ijmp  :   0 in    :  39 inc   :   4 jmp   :  60 ld    : 115 ldd   : 168 
ldi   : 696 lds   : 153 lpm   :  12 lsl   :  20 lsr   :  10 mov   :  55 
movw  :  80 mul   :  18 muls  :   0 mulsu :   0 neg   :   1 nop   :   0 
or    :  10 ori   :  21 out   : 101 pop   :  21 push  :  21 rcall :  44 
ret   : 140 reti  :   6 rjmp  : 149 rol   :  21 ror   :   7 sbc   :   8 
sbci  :  39 sbi   :  25 sbic  :   3 sbis  :   2 sbiw  :  22 sbr   :   2 
sbrc  :   2 sbrs  :   1 sec   :   0 seh   :   0 sei   :   6 sen   :   0 
ser   :   0 ses   :   0 set   :   0 sev   :   0 sez   :   0 sleep :   0 
spm   :   0 st    : 246 std   :  64 sts   : 180 sub   :   7 subi  :  55 
swap  :   2 tst   :   8 wdr   :   2 
Instructions used: 66 out of 117 (56.4%)

ATmega128 memory use summary [bytes]:
Segment   Begin    End      Code   Data   Used    Size   Use%
---------------------------------------------------------------
[.cseg] 0x000000 0x002da2   8958   2724  11682  131072   8.9%
[.dseg] 0x000100 0x000eb9      0   3257   3257    4351  74.9%
[.eseg] 0x000000 0x00000c      0     12     12    4096   0.3%

Assembly complete, 0 errors, 24 warnings
